
prova2:     file format elf64-littleaarch64


Disassembly of section .init:

0000000000400228 <_init>:
  400228:	d503201f 	nop
  40022c:	a9bf7bfd 	stp	x29, x30, [sp, #-16]!
  400230:	910003fd 	mov	x29, sp
  400234:	940000f4 	bl	400604 <call_weak_fn>
  400238:	a8c17bfd 	ldp	x29, x30, [sp], #16
  40023c:	d65f03c0 	ret

Disassembly of section .plt:

0000000000400240 <.plt>:
  400240:	90000490 	adrp	x16, 490000 <.got.plt+0x18>
  400244:	f9400211 	ldr	x17, [x16]
  400248:	91000210 	add	x16, x16, #0x0
  40024c:	d61f0220 	br	x17
  400250:	90000490 	adrp	x16, 490000 <.got.plt+0x18>
  400254:	f9400611 	ldr	x17, [x16, #8]
  400258:	91002210 	add	x16, x16, #0x8
  40025c:	d61f0220 	br	x17
  400260:	90000490 	adrp	x16, 490000 <.got.plt+0x18>
  400264:	f9400a11 	ldr	x17, [x16, #16]
  400268:	91004210 	add	x16, x16, #0x10
  40026c:	d61f0220 	br	x17
  400270:	90000490 	adrp	x16, 490000 <.got.plt+0x18>
  400274:	f9400e11 	ldr	x17, [x16, #24]
  400278:	91006210 	add	x16, x16, #0x18
  40027c:	d61f0220 	br	x17
  400280:	90000490 	adrp	x16, 490000 <.got.plt+0x18>
  400284:	f9401211 	ldr	x17, [x16, #32]
  400288:	91008210 	add	x16, x16, #0x20
  40028c:	d61f0220 	br	x17

Disassembly of section .text:

00000000004002c0 <abort>:
  4002c0:	a9b37bfd 	stp	x29, x30, [sp, #-208]!
  4002c4:	910003fd 	mov	x29, sp
  4002c8:	a90153f3 	stp	x19, x20, [sp, #16]
  4002cc:	d0000493 	adrp	x19, 492000 <static_slotinfo+0x270>
  4002d0:	9107a274 	add	x20, x19, #0x1e8
  4002d4:	f90013f5 	str	x21, [sp, #32]
  4002d8:	d53bd055 	mrs	x21, tpidr_el0
  4002dc:	d11d02b5 	sub	x21, x21, #0x740
  4002e0:	f9400680 	ldr	x0, [x20, #8]
  4002e4:	eb15001f 	cmp	x0, x21
  4002e8:	54000140 	b.eq	400310 <abort+0x50>  // b.none
  4002ec:	aa1403e2 	mov	x2, x20
  4002f0:	52800021 	mov	w1, #0x1                   	// #1
  4002f4:	52800000 	mov	w0, #0x0                   	// #0
  4002f8:	94012386 	bl	449110 <__aarch64_cas4_acq>
  4002fc:	34000060 	cbz	w0, 400308 <abort+0x48>
  400300:	aa1403e0 	mov	x0, x20
  400304:	9400052f 	bl	4017c0 <__lll_lock_wait_private>
  400308:	9107a260 	add	x0, x19, #0x1e8
  40030c:	f9000415 	str	x21, [x0, #8]
  400310:	9107a264 	add	x4, x19, #0x1e8
  400314:	b9400480 	ldr	w0, [x4, #4]
  400318:	b9401081 	ldr	w1, [x4, #16]
  40031c:	11000400 	add	w0, w0, #0x1
  400320:	b9000480 	str	w0, [x4, #4]
  400324:	35000161 	cbnz	w1, 400350 <abort+0x90>
  400328:	52800025 	mov	w5, #0x1                   	// #1
  40032c:	d2800406 	mov	x6, #0x20                  	// #32
  400330:	d2800020 	mov	x0, #0x1                   	// #1
  400334:	9100e3e1 	add	x1, sp, #0x38
  400338:	d2800002 	mov	x2, #0x0                   	// #0
  40033c:	d2800103 	mov	x3, #0x8                   	// #8
  400340:	d28010e8 	mov	x8, #0x87                  	// #135
  400344:	b9001085 	str	w5, [x4, #16]
  400348:	f9001fe6 	str	x6, [sp, #56]
  40034c:	d4000001 	svc	#0x0
  400350:	9107a274 	add	x20, x19, #0x1e8
  400354:	b9401280 	ldr	w0, [x20, #16]
  400358:	7100041f 	cmp	w0, #0x1
  40035c:	54000421 	b.ne	4003e0 <abort+0x120>  // b.any
  400360:	b9400680 	ldr	w0, [x20, #4]
  400364:	b900129f 	str	wzr, [x20, #16]
  400368:	51000400 	sub	w0, w0, #0x1
  40036c:	b9000680 	str	w0, [x20, #4]
  400370:	35000100 	cbnz	w0, 400390 <abort+0xd0>
  400374:	aa1403e1 	mov	x1, x20
  400378:	f900069f 	str	xzr, [x20, #8]
  40037c:	94012411 	bl	4493c0 <__aarch64_swp4_rel>
  400380:	7100041f 	cmp	w0, #0x1
  400384:	5400006d 	b.le	400390 <abort+0xd0>
  400388:	aa1403e0 	mov	x0, x20
  40038c:	94000549 	bl	4018b0 <__lll_lock_wake_private>
  400390:	9107a274 	add	x20, x19, #0x1e8
  400394:	528000c0 	mov	w0, #0x6                   	// #6
  400398:	940031de 	bl	40cb10 <raise>
  40039c:	f9400680 	ldr	x0, [x20, #8]
  4003a0:	eb0002bf 	cmp	x21, x0
  4003a4:	54000140 	b.eq	4003cc <abort+0x10c>  // b.none
  4003a8:	aa1403e2 	mov	x2, x20
  4003ac:	52800021 	mov	w1, #0x1                   	// #1
  4003b0:	52800000 	mov	w0, #0x0                   	// #0
  4003b4:	94012357 	bl	449110 <__aarch64_cas4_acq>
  4003b8:	34000060 	cbz	w0, 4003c4 <abort+0x104>
  4003bc:	aa1403e0 	mov	x0, x20
  4003c0:	94000500 	bl	4017c0 <__lll_lock_wait_private>
  4003c4:	9107a260 	add	x0, x19, #0x1e8
  4003c8:	f9000415 	str	x21, [x0, #8]
  4003cc:	9107a261 	add	x1, x19, #0x1e8
  4003d0:	b9400420 	ldr	w0, [x1, #4]
  4003d4:	11000400 	add	w0, w0, #0x1
  4003d8:	b9000420 	str	w0, [x1, #4]
  4003dc:	14000003 	b	4003e8 <abort+0x128>
  4003e0:	7100081f 	cmp	w0, #0x2
  4003e4:	540001e1 	b.ne	400420 <abort+0x160>  // b.any
  4003e8:	9107a264 	add	x4, x19, #0x1e8
  4003ec:	9100e3e3 	add	x3, sp, #0x38
  4003f0:	52800065 	mov	w5, #0x3                   	// #3
  4003f4:	d2801302 	mov	x2, #0x98                  	// #152
  4003f8:	52800001 	mov	w1, #0x0                   	// #0
  4003fc:	aa0303e0 	mov	x0, x3
  400400:	b9001085 	str	w5, [x4, #16]
  400404:	97ffff9b 	bl	400270 <.plt+0x30>
  400408:	92800004 	mov	x4, #0xffffffffffffffff    	// #-1
  40040c:	aa0003e1 	mov	x1, x0
  400410:	d2800002 	mov	x2, #0x0                   	// #0
  400414:	528000c0 	mov	w0, #0x6                   	// #6
  400418:	f90023e4 	str	x4, [sp, #64]
  40041c:	940031d1 	bl	40cb60 <__sigaction>
  400420:	9107a261 	add	x1, x19, #0x1e8
  400424:	b9401020 	ldr	w0, [x1, #16]
  400428:	71000c1f 	cmp	w0, #0x3
  40042c:	540000a1 	b.ne	400440 <abort+0x180>  // b.any
  400430:	52800082 	mov	w2, #0x4                   	// #4
  400434:	528000c0 	mov	w0, #0x6                   	// #6
  400438:	b9001022 	str	w2, [x1, #16]
  40043c:	940031b5 	bl	40cb10 <raise>
  400440:	9107a260 	add	x0, x19, #0x1e8
  400444:	b9401001 	ldr	w1, [x0, #16]
  400448:	7100103f 	cmp	w1, #0x4
  40044c:	54000081 	b.ne	40045c <abort+0x19c>  // b.any
  400450:	528000a1 	mov	w1, #0x5                   	// #5
  400454:	b9001001 	str	w1, [x0, #16]
  400458:	d4207d00 	brk	#0x3e8
  40045c:	9107a273 	add	x19, x19, #0x1e8
  400460:	b9401260 	ldr	w0, [x19, #16]
  400464:	7100141f 	cmp	w0, #0x5
  400468:	540000a1 	b.ne	40047c <abort+0x1bc>  // b.any
  40046c:	528000c1 	mov	w1, #0x6                   	// #6
  400470:	52800fe0 	mov	w0, #0x7f                  	// #127
  400474:	b9001261 	str	w1, [x19, #16]
  400478:	9400254e 	bl	4099b0 <_exit>
  40047c:	d4207d00 	brk	#0x3e8
  400480:	17ffffff 	b	40047c <abort+0x1bc>

0000000000400484 <_dl_start>:
  400484:	a9bf7bfd 	stp	x29, x30, [sp, #-16]!
  400488:	910003fd 	mov	x29, sp
  40048c:	97ffff8d 	bl	4002c0 <abort>

0000000000400490 <btree_release_tree_recursively.constprop.0>:
  400490:	a9bd7bfd 	stp	x29, x30, [sp, #-48]!
  400494:	910003fd 	mov	x29, sp
  400498:	a90153f3 	stp	x19, x20, [sp, #16]
  40049c:	aa0003f3 	mov	x19, x0
  4004a0:	f90013f5 	str	x21, [sp, #32]
  4004a4:	9401314f 	bl	44c9e0 <version_lock_lock_exclusive>
  4004a8:	b9400e74 	ldr	w20, [x19, #12]
  4004ac:	35000154 	cbnz	w20, 4004d4 <btree_release_tree_recursively.constprop.0+0x44>
  4004b0:	b9400a60 	ldr	w0, [x19, #8]
  4004b4:	34000100 	cbz	w0, 4004d4 <btree_release_tree_recursively.constprop.0+0x44>
  4004b8:	8b345260 	add	x0, x19, w20, uxtw #4
  4004bc:	11000694 	add	w20, w20, #0x1
  4004c0:	f9400c00 	ldr	x0, [x0, #24]
  4004c4:	97fffff3 	bl	400490 <btree_release_tree_recursively.constprop.0>
  4004c8:	b9400a60 	ldr	w0, [x19, #8]
  4004cc:	6b00029f 	cmp	w20, w0
  4004d0:	54ffff43 	b.cc	4004b8 <btree_release_tree_recursively.constprop.0+0x28>  // b.lo, b.ul, b.last
  4004d4:	52800040 	mov	w0, #0x2                   	// #2
  4004d8:	d00004b5 	adrp	x21, 496000 <__pthread_keys+0x39d0>
  4004dc:	9137e2b5 	add	x21, x21, #0xdf8
  4004e0:	b9000e60 	str	w0, [x19, #12]
  4004e4:	9101a2b5 	add	x21, x21, #0x68
  4004e8:	c8dffeb4 	ldar	x20, [x21]
  4004ec:	f9000e74 	str	x20, [x19, #24]
  4004f0:	aa1403e0 	mov	x0, x20
  4004f4:	aa1503e2 	mov	x2, x21
  4004f8:	aa1303e1 	mov	x1, x19
  4004fc:	94013d91 	bl	44fb40 <__aarch64_cas8_acq_rel>
  400500:	eb14001f 	cmp	x0, x20
  400504:	aa0003f4 	mov	x20, x0
  400508:	54ffff21 	b.ne	4004ec <btree_release_tree_recursively.constprop.0+0x5c>  // b.any
  40050c:	f94013f5 	ldr	x21, [sp, #32]
  400510:	aa1303e0 	mov	x0, x19
  400514:	a94153f3 	ldp	x19, x20, [sp, #16]
  400518:	a8c37bfd 	ldp	x29, x30, [sp], #48
  40051c:	14013249 	b	44ce40 <version_lock_unlock_exclusive>

0000000000400520 <release_registered_frames>:
  400520:	a9bd7bfd 	stp	x29, x30, [sp, #-48]!
  400524:	d2800000 	mov	x0, #0x0                   	// #0
  400528:	910003fd 	mov	x29, sp
  40052c:	f90013f5 	str	x21, [sp, #32]
  400530:	d00004b5 	adrp	x21, 496000 <__pthread_keys+0x39d0>
  400534:	9137e2a1 	add	x1, x21, #0xdf8
  400538:	a90153f3 	stp	x19, x20, [sp, #16]
  40053c:	91018021 	add	x1, x1, #0x60
  400540:	94013d90 	bl	44fb80 <__aarch64_swp8_acq_rel>
  400544:	b5000220 	cbnz	x0, 400588 <release_registered_frames+0x68>
  400548:	9137e2b4 	add	x20, x21, #0xdf8
  40054c:	f9403693 	ldr	x19, [x20, #104]
  400550:	b40000f3 	cbz	x19, 40056c <release_registered_frames+0x4c>
  400554:	d503201f 	nop
  400558:	aa1303e0 	mov	x0, x19
  40055c:	f9400e73 	ldr	x19, [x19, #24]
  400560:	94001748 	bl	406280 <__free>
  400564:	f9003693 	str	x19, [x20, #104]
  400568:	b5ffff93 	cbnz	x19, 400558 <release_registered_frames+0x38>
  40056c:	9137e2b5 	add	x21, x21, #0xdf8
  400570:	52800020 	mov	w0, #0x1                   	// #1
  400574:	a94153f3 	ldp	x19, x20, [sp, #16]
  400578:	3901e2a0 	strb	w0, [x21, #120]
  40057c:	f94013f5 	ldr	x21, [sp, #32]
  400580:	a8c37bfd 	ldp	x29, x30, [sp], #48
  400584:	d65f03c0 	ret
  400588:	97ffffc2 	bl	400490 <btree_release_tree_recursively.constprop.0>
  40058c:	17ffffef 	b	400548 <release_registered_frames+0x28>

0000000000400590 <init_have_lse_atomics>:
  400590:	a9bf7bfd 	stp	x29, x30, [sp, #-16]!
  400594:	d2800200 	mov	x0, #0x10                  	// #16
  400598:	910003fd 	mov	x29, sp
  40059c:	94013d49 	bl	44fac0 <__getauxval>
  4005a0:	53082000 	ubfx	w0, w0, #8, #1
  4005a4:	d00004a1 	adrp	x1, 496000 <__pthread_keys+0x39d0>
  4005a8:	a8c17bfd 	ldp	x29, x30, [sp], #16
  4005ac:	39360020 	strb	w0, [x1, #3456]
  4005b0:	d65f03c0 	ret
  4005b4:	d503201f 	nop
  4005b8:	d503201f 	nop
  4005bc:	d503201f 	nop

00000000004005c0 <_start>:
  4005c0:	d503201f 	nop
  4005c4:	d280001d 	mov	x29, #0x0                   	// #0
  4005c8:	d280001e 	mov	x30, #0x0                   	// #0
  4005cc:	aa0003e5 	mov	x5, x0
  4005d0:	f94003e1 	ldr	x1, [sp]
  4005d4:	910023e2 	add	x2, sp, #0x8
  4005d8:	910003e6 	mov	x6, sp
  4005dc:	90000000 	adrp	x0, 400000 <__ehdr_start>
  4005e0:	9117d000 	add	x0, x0, #0x5f4
  4005e4:	d2800003 	mov	x3, #0x0                   	// #0
  4005e8:	d2800004 	mov	x4, #0x0                   	// #0
  4005ec:	940000ce 	bl	400924 <__libc_start_main>
  4005f0:	97ffff34 	bl	4002c0 <abort>

00000000004005f4 <__wrap_main>:
  4005f4:	d503201f 	nop
  4005f8:	14000047 	b	400714 <main>
  4005fc:	d503201f 	nop

0000000000400600 <_dl_relocate_static_pie>:
  400600:	d65f03c0 	ret

0000000000400604 <call_weak_fn>:
  400604:	f0000460 	adrp	x0, 48f000 <_IO_file_jumps+0x130>
  400608:	f947e800 	ldr	x0, [x0, #4048]
  40060c:	b4000040 	cbz	x0, 400614 <call_weak_fn+0x10>
  400610:	d503201f 	nop
  400614:	d65f03c0 	ret
  400618:	d503201f 	nop
  40061c:	d503201f 	nop

0000000000400620 <deregister_tm_clones>:
  400620:	b0000480 	adrp	x0, 491000 <DW.ref.__gcc_personality_v0>
  400624:	91252000 	add	x0, x0, #0x948
  400628:	b0000481 	adrp	x1, 491000 <DW.ref.__gcc_personality_v0>
  40062c:	91252021 	add	x1, x1, #0x948
  400630:	eb00003f 	cmp	x1, x0
  400634:	540000c0 	b.eq	40064c <deregister_tm_clones+0x2c>  // b.none
  400638:	f0000461 	adrp	x1, 48f000 <_IO_file_jumps+0x130>
  40063c:	f9473421 	ldr	x1, [x1, #3688]
  400640:	b4000061 	cbz	x1, 40064c <deregister_tm_clones+0x2c>
  400644:	aa0103f0 	mov	x16, x1
  400648:	d61f0200 	br	x16
  40064c:	d65f03c0 	ret

0000000000400650 <register_tm_clones>:
  400650:	b0000480 	adrp	x0, 491000 <DW.ref.__gcc_personality_v0>
  400654:	91252000 	add	x0, x0, #0x948
  400658:	b0000481 	adrp	x1, 491000 <DW.ref.__gcc_personality_v0>
  40065c:	91252021 	add	x1, x1, #0x948
  400660:	cb000021 	sub	x1, x1, x0
  400664:	d37ffc22 	lsr	x2, x1, #63
  400668:	8b810c41 	add	x1, x2, x1, asr #3
  40066c:	9341fc21 	asr	x1, x1, #1
  400670:	b40000c1 	cbz	x1, 400688 <register_tm_clones+0x38>
  400674:	f0000462 	adrp	x2, 48f000 <_IO_file_jumps+0x130>
  400678:	f946e442 	ldr	x2, [x2, #3528]
  40067c:	b4000062 	cbz	x2, 400688 <register_tm_clones+0x38>
  400680:	aa0203f0 	mov	x16, x2
  400684:	d61f0200 	br	x16
  400688:	d65f03c0 	ret
  40068c:	d503201f 	nop

0000000000400690 <__do_global_dtors_aux>:
  400690:	a9be7bfd 	stp	x29, x30, [sp, #-32]!
  400694:	910003fd 	mov	x29, sp
  400698:	f9000bf3 	str	x19, [sp, #16]
  40069c:	b0000493 	adrp	x19, 491000 <DW.ref.__gcc_personality_v0>
  4006a0:	39654260 	ldrb	w0, [x19, #2384]
  4006a4:	37000140 	tbnz	w0, #0, 4006cc <__do_global_dtors_aux+0x3c>
  4006a8:	97ffffde 	bl	400620 <deregister_tm_clones>
  4006ac:	f0000460 	adrp	x0, 48f000 <_IO_file_jumps+0x130>
  4006b0:	f946d800 	ldr	x0, [x0, #3504]
  4006b4:	b4000080 	cbz	x0, 4006c4 <__do_global_dtors_aux+0x34>
  4006b8:	b0000340 	adrp	x0, 469000 <__tens+0x2820>
  4006bc:	913ce000 	add	x0, x0, #0xf38
  4006c0:	94013934 	bl	44eb90 <__deregister_frame_info>
  4006c4:	52800020 	mov	w0, #0x1                   	// #1
  4006c8:	39254260 	strb	w0, [x19, #2384]
  4006cc:	f9400bf3 	ldr	x19, [sp, #16]
  4006d0:	a8c27bfd 	ldp	x29, x30, [sp], #32
  4006d4:	d65f03c0 	ret
  4006d8:	d503201f 	nop
  4006dc:	d503201f 	nop

00000000004006e0 <frame_dummy>:
  4006e0:	f0000460 	adrp	x0, 48f000 <_IO_file_jumps+0x130>
  4006e4:	f947d400 	ldr	x0, [x0, #4008]
  4006e8:	b4000140 	cbz	x0, 400710 <frame_dummy+0x30>
  4006ec:	a9bf7bfd 	stp	x29, x30, [sp, #-16]!
  4006f0:	b0000481 	adrp	x1, 491000 <DW.ref.__gcc_personality_v0>
  4006f4:	b0000340 	adrp	x0, 469000 <__tens+0x2820>
  4006f8:	910003fd 	mov	x29, sp
  4006fc:	91256021 	add	x1, x1, #0x958
  400700:	913ce000 	add	x0, x0, #0xf38
  400704:	940138b7 	bl	44e9e0 <__register_frame_info>
  400708:	a8c17bfd 	ldp	x29, x30, [sp], #16
  40070c:	17ffffd1 	b	400650 <register_tm_clones>
  400710:	17ffffd0 	b	400650 <register_tm_clones>

0000000000400714 <main>:
  400714:	a9be7bfd 	stp	x29, x30, [sp, #-32]!
  400718:	910003fd 	mov	x29, sp
  40071c:	d2800080 	mov	x0, #0x4                   	// #4
  400720:	94001538 	bl	405c00 <__libc_malloc>
  400724:	f9000fe0 	str	x0, [sp, #24]
  400728:	d2800005 	mov	x5, #0x0                   	// #0
  40072c:	52800004 	mov	w4, #0x0                   	// #0
  400730:	52800443 	mov	w3, #0x22                  	// #34
  400734:	52800062 	mov	w2, #0x3                   	// #3
  400738:	d2800081 	mov	x1, #0x4                   	// #4
  40073c:	d2800000 	mov	x0, #0x0                   	// #0
  400740:	940026f8 	bl	40a320 <__mmap64>
  400744:	f9000be0 	str	x0, [sp, #16]
  400748:	f9400fe0 	ldr	x0, [sp, #24]
  40074c:	b900001f 	str	wzr, [x0]
  400750:	f9400be0 	ldr	x0, [sp, #16]
  400754:	b900001f 	str	wzr, [x0]
  400758:	d2800000 	mov	x0, #0x0                   	// #0
  40075c:	94000012 	bl	4007a4 <m5_exit>
  400760:	52800000 	mov	w0, #0x0                   	// #0
  400764:	a8c27bfd 	ldp	x29, x30, [sp], #32
  400768:	d65f03c0 	ret

000000000040076c <m5_arm>:
  40076c:	ff000110 	.word	0xff000110
  400770:	d65f03c0 	ret

0000000000400774 <m5_quiesce>:
  400774:	ff010110 	.word	0xff010110
  400778:	d65f03c0 	ret

000000000040077c <m5_quiesce_ns>:
  40077c:	ff020110 	.word	0xff020110
  400780:	d65f03c0 	ret

0000000000400784 <m5_quiesce_cycle>:
  400784:	ff030110 	.word	0xff030110
  400788:	d65f03c0 	ret

000000000040078c <m5_quiesce_time>:
  40078c:	ff040110 	.word	0xff040110
  400790:	d65f03c0 	ret

0000000000400794 <m5_rpns>:
  400794:	ff070110 	.word	0xff070110
  400798:	d65f03c0 	ret

000000000040079c <m5_wake_cpu>:
  40079c:	ff090110 	.word	0xff090110
  4007a0:	d65f03c0 	ret

00000000004007a4 <m5_exit>:
  4007a4:	ff210110 	.word	0xff210110
  4007a8:	d65f03c0 	ret

00000000004007ac <m5_fail>:
  4007ac:	ff220110 	.word	0xff220110
  4007b0:	d65f03c0 	ret

00000000004007b4 <m5_sum>:
  4007b4:	ff230110 	.word	0xff230110
  4007b8:	d65f03c0 	ret

00000000004007bc <m5_init_param>:
  4007bc:	ff300110 	.word	0xff300110
  4007c0:	d65f03c0 	ret

00000000004007c4 <m5_load_symbol>:
  4007c4:	ff310110 	.word	0xff310110
  4007c8:	d65f03c0 	ret

00000000004007cc <m5_reset_stats>:
  4007cc:	ff400110 	.word	0xff400110
  4007d0:	d65f03c0 	ret

00000000004007d4 <m5_dump_stats>:
  4007d4:	ff410110 	.word	0xff410110
  4007d8:	d65f03c0 	ret

00000000004007dc <m5_dump_reset_stats>:
  4007dc:	ff420110 	.word	0xff420110
  4007e0:	d65f03c0 	ret

00000000004007e4 <m5_checkpoint>:
  4007e4:	ff430110 	.word	0xff430110
  4007e8:	d65f03c0 	ret

00000000004007ec <m5_write_file>:
  4007ec:	ff4f0110 	.word	0xff4f0110
  4007f0:	d65f03c0 	ret

00000000004007f4 <m5_read_file>:
  4007f4:	ff500110 	.word	0xff500110
  4007f8:	d65f03c0 	ret

00000000004007fc <m5_debug_break>:
  4007fc:	ff510110 	.word	0xff510110
  400800:	d65f03c0 	ret

0000000000400804 <m5_switch_cpu>:
  400804:	ff520110 	.word	0xff520110
  400808:	d65f03c0 	ret

000000000040080c <m5_add_symbol>:
  40080c:	ff530110 	.word	0xff530110
  400810:	d65f03c0 	ret

0000000000400814 <m5_panic>:
  400814:	ff540110 	.word	0xff540110
  400818:	d65f03c0 	ret

000000000040081c <m5_work_begin>:
  40081c:	ff5a0110 	.word	0xff5a0110
  400820:	d65f03c0 	ret

0000000000400824 <m5_work_end>:
  400824:	ff5b0110 	.word	0xff5b0110
  400828:	d65f03c0 	ret

000000000040082c <m5_dist_toggle_sync>:
  40082c:	ff620110 	.word	0xff620110
  400830:	d65f03c0 	ret

0000000000400834 <m5_workload>:
  400834:	ff700110 	.word	0xff700110
  400838:	d65f03c0 	ret
  40083c:	d503201f 	nop

0000000000400840 <call_fini>:
  400840:	a9be7bfd 	stp	x29, x30, [sp, #-32]!
  400844:	90000460 	adrp	x0, 48c000 <__FRAME_END__+0x1668c>
  400848:	9114c000 	add	x0, x0, #0x530
  40084c:	910003fd 	mov	x29, sp
  400850:	a90153f3 	stp	x19, x20, [sp, #16]
  400854:	90000473 	adrp	x19, 48c000 <__FRAME_END__+0x1668c>
  400858:	91150273 	add	x19, x19, #0x540
  40085c:	cb000273 	sub	x19, x19, x0
  400860:	9343fe73 	asr	x19, x19, #3
  400864:	b40000f3 	cbz	x19, 400880 <call_fini+0x40>
  400868:	90000474 	adrp	x20, 48c000 <__FRAME_END__+0x1668c>
  40086c:	9114a294 	add	x20, x20, #0x528
  400870:	f8737a80 	ldr	x0, [x20, x19, lsl #3]
  400874:	d63f0000 	blr	x0
  400878:	f1000673 	subs	x19, x19, #0x1
  40087c:	54ffffa1 	b.ne	400870 <call_fini+0x30>  // b.any
  400880:	a94153f3 	ldp	x19, x20, [sp, #16]
  400884:	a8c27bfd 	ldp	x29, x30, [sp], #32
  400888:	14013cc9 	b	44fbac <_fini>
  40088c:	d503201f 	nop

0000000000400890 <__libc_start_call_main>:
  400890:	a9af7bfd 	stp	x29, x30, [sp, #-272]!
  400894:	910003fd 	mov	x29, sp
  400898:	f9000fe0 	str	x0, [sp, #24]
  40089c:	9100c3e0 	add	x0, sp, #0x30
  4008a0:	b90027e1 	str	w1, [sp, #36]
  4008a4:	f90017e2 	str	x2, [sp, #40]
  4008a8:	940001c6 	bl	400fc0 <_setjmp>
  4008ac:	35000200 	cbnz	w0, 4008ec <__libc_start_call_main+0x5c>
  4008b0:	d53bd040 	mrs	x0, tpidr_el0
  4008b4:	d00004a1 	adrp	x1, 496000 <__pthread_keys+0x39d0>
  4008b8:	d1180003 	sub	x3, x0, #0x600
  4008bc:	d11d0000 	sub	x0, x0, #0x740
  4008c0:	f9433c22 	ldr	x2, [x1, #1656]
  4008c4:	9100c3e1 	add	x1, sp, #0x30
  4008c8:	3cdb8060 	ldur	q0, [x3, #-72]
  4008cc:	f9008001 	str	x1, [x0, #256]
  4008d0:	f9400fe3 	ldr	x3, [sp, #24]
  4008d4:	f94017e1 	ldr	x1, [sp, #40]
  4008d8:	6e004000 	ext	v0.16b, v0.16b, v0.16b, #8
  4008dc:	b94027e0 	ldr	w0, [sp, #36]
  4008e0:	3c8e83e0 	stur	q0, [sp, #232]
  4008e4:	d63f0060 	blr	x3
  4008e8:	94000316 	bl	401540 <exit>
  4008ec:	94000401 	bl	4018f0 <__nptl_deallocate_tsd>
  4008f0:	90000481 	adrp	x1, 490000 <.got.plt+0x18>
  4008f4:	12800000 	mov	w0, #0xffffffff            	// #-1
  4008f8:	91012021 	add	x1, x1, #0x48
  4008fc:	94012251 	bl	449240 <__aarch64_ldadd4_relax>
  400900:	7100041f 	cmp	w0, #0x1
  400904:	540000c0 	b.eq	40091c <__libc_start_call_main+0x8c>  // b.none
  400908:	d2800ba8 	mov	x8, #0x5d                  	// #93
  40090c:	d503201f 	nop
  400910:	d2800000 	mov	x0, #0x0                   	// #0
  400914:	d4000001 	svc	#0x0
  400918:	17fffffe 	b	400910 <__libc_start_call_main+0x80>
  40091c:	52800000 	mov	w0, #0x0                   	// #0
  400920:	94000308 	bl	401540 <exit>

0000000000400924 <__libc_start_main>:
  400924:	a9b77bfd 	stp	x29, x30, [sp, #-144]!
  400928:	910003fd 	mov	x29, sp
  40092c:	a90153f3 	stp	x19, x20, [sp, #16]
  400930:	2a0103f4 	mov	w20, w1
  400934:	d0000461 	adrp	x1, 48e000 <tunable_list+0x40>
  400938:	a9025bf5 	stp	x21, x22, [sp, #32]
  40093c:	d00004b6 	adrp	x22, 496000 <__pthread_keys+0x39d0>
  400940:	8b34cc43 	add	x3, x2, w20, sxtw #3
  400944:	aa0203f5 	mov	x21, x2
  400948:	f906bc26 	str	x6, [x1, #3448]
  40094c:	a90363f7 	stp	x23, x24, [sp, #48]
  400950:	a9046bf9 	stp	x25, x26, [sp, #64]
  400954:	a90573fb 	stp	x27, x28, [sp, #80]
  400958:	a90617e0 	stp	x0, x5, [sp, #96]
  40095c:	91002060 	add	x0, x3, #0x8
  400960:	f9033ec0 	str	x0, [x22, #1656]
  400964:	d503201f 	nop
  400968:	f8408403 	ldr	x3, [x0], #8
  40096c:	b5ffffe3 	cbnz	x3, 400968 <__libc_start_main+0x44>
  400970:	94002d3c 	bl	40be60 <_dl_aux_init>
  400974:	9101e3f9 	add	x25, sp, #0x78
  400978:	f9433ec0 	ldr	x0, [x22, #1656]
  40097c:	94002b51 	bl	40b6c0 <__tunables_init>
  400980:	aa1903e1 	mov	x1, x25
  400984:	d2800002 	mov	x2, #0x0                   	// #0
  400988:	528000a0 	mov	w0, #0x5                   	// #5
  40098c:	94002ced 	bl	40bd40 <__tunable_get_val>
  400990:	f9403ffb 	ldr	x27, [sp, #120]
  400994:	b40001bb 	cbz	x27, 4009c8 <__libc_start_main+0xa4>
  400998:	9000047c 	adrp	x28, 48c000 <__FRAME_END__+0x1668c>
  40099c:	9115039a 	add	x26, x28, #0x540
  4009a0:	52800013 	mov	w19, #0x0                   	// #0
  4009a4:	d503201f 	nop
  4009a8:	f9400341 	ldr	x1, [x26]
  4009ac:	aa1b03e0 	mov	x0, x27
  4009b0:	94001c54 	bl	407b00 <strcmp>
  4009b4:	34000720 	cbz	w0, 400a98 <__libc_start_main+0x174>
  4009b8:	11000673 	add	w19, w19, #0x1
  4009bc:	9100435a 	add	x26, x26, #0x10
  4009c0:	71002a7f 	cmp	w19, #0xa
  4009c4:	54ffff21 	b.ne	4009a8 <__libc_start_main+0x84>  // b.any
  4009c8:	d00004b8 	adrp	x24, 496000 <__pthread_keys+0x39d0>
  4009cc:	f9436b00 	ldr	x0, [x24, #1744]
  4009d0:	92750001 	and	x1, x0, #0x800
  4009d4:	375805e0 	tbnz	w0, #11, 400a90 <__libc_start_main+0x16c>
  4009d8:	d00004a0 	adrp	x0, 496000 <__pthread_keys+0x39d0>
  4009dc:	911ea004 	add	x4, x0, #0x7a8
  4009e0:	f903d401 	str	x1, [x0, #1960]
  4009e4:	d53b00e1 	mrs	x1, dczid_el0
  4009e8:	372000a1 	tbnz	w1, #4, 4009fc <__libc_start_main+0xd8>
  4009ec:	12000c21 	and	w1, w1, #0xf
  4009f0:	52800082 	mov	w2, #0x4                   	// #4
  4009f4:	1ac12041 	lsl	w1, w2, w1
  4009f8:	b9000881 	str	w1, [x4, #8]
  4009fc:	d00004b7 	adrp	x23, 496000 <__pthread_keys+0x39d0>
  400a00:	911ea000 	add	x0, x0, #0x7a8
  400a04:	f9436b02 	ldr	x2, [x24, #1744]
  400a08:	f9436ee1 	ldr	x1, [x23, #1752]
  400a0c:	3900341f 	strb	wzr, [x0, #13]
  400a10:	53165842 	ubfx	w2, w2, #22, #1
  400a14:	39003802 	strb	w2, [x0, #14]
  400a18:	f0000473 	adrp	x19, 48f000 <_IO_file_jumps+0x130>
  400a1c:	f9469a73 	ldr	x19, [x19, #3376]
  400a20:	53114421 	ubfx	w1, w1, #17, #1
  400a24:	f000047a 	adrp	x26, 48f000 <_IO_file_jumps+0x130>
  400a28:	f946675a 	ldr	x26, [x26, #3272]
  400a2c:	39003001 	strb	w1, [x0, #12]
  400a30:	97fffef4 	bl	400600 <_dl_relocate_static_pie>
  400a34:	eb1a027f 	cmp	x19, x26
  400a38:	540003e2 	b.cs	400ab4 <__libc_start_main+0x190>  // b.hs, b.nlast
  400a3c:	d280031b 	mov	x27, #0x18                  	// #24
  400a40:	1400000d 	b	400a74 <__libc_start_main+0x150>
  400a44:	f9400a62 	ldr	x2, [x19, #16]
  400a48:	91006273 	add	x19, x19, #0x18
  400a4c:	f9436b00 	ldr	x0, [x24, #1744]
  400a50:	a90783fb 	stp	x27, x0, [sp, #120]
  400a54:	f9436ee1 	ldr	x1, [x23, #1752]
  400a58:	f90047e1 	str	x1, [sp, #136]
  400a5c:	b2420000 	orr	x0, x0, #0x4000000000000000
  400a60:	aa1903e1 	mov	x1, x25
  400a64:	d63f0040 	blr	x2
  400a68:	f9000380 	str	x0, [x28]
  400a6c:	eb1a027f 	cmp	x19, x26
  400a70:	54000222 	b.cs	400ab4 <__libc_start_main+0x190>  // b.hs, b.nlast
  400a74:	b9400a60 	ldr	w0, [x19, #8]
  400a78:	f940027c 	ldr	x28, [x19]
  400a7c:	f110201f 	cmp	x0, #0x408
  400a80:	54fffe20 	b.eq	400a44 <__libc_start_main+0x120>  // b.none
  400a84:	f0000260 	adrp	x0, 44f000 <_Unwind_Find_FDE+0x430>
  400a88:	912f2000 	add	x0, x0, #0xbc8
  400a8c:	94000345 	bl	4017a0 <__libc_fatal>
  400a90:	d5380001 	mrs	x1, midr_el1
  400a94:	17ffffd1 	b	4009d8 <__libc_start_main+0xb4>
  400a98:	9115039c 	add	x28, x28, #0x540
  400a9c:	8b33d393 	add	x19, x28, w19, sxtw #4
  400aa0:	f9400661 	ldr	x1, [x19, #8]
  400aa4:	b100043f 	cmn	x1, #0x1
  400aa8:	54fff900 	b.eq	4009c8 <__libc_start_main+0xa4>  // b.none
  400aac:	d00004b8 	adrp	x24, 496000 <__pthread_keys+0x39d0>
  400ab0:	17ffffca 	b	4009d8 <__libc_start_main+0xb4>
  400ab4:	d0000479 	adrp	x25, 48e000 <tunable_list+0x40>
  400ab8:	9400008e 	bl	400cf0 <__libc_setup_tls>
  400abc:	b0000473 	adrp	x19, 48d000 <_sys_errlist_internal+0x2c0>
  400ac0:	f946ab21 	ldr	x1, [x25, #3408]
  400ac4:	f0000460 	adrp	x0, 48f000 <_IO_file_jumps+0x130>
  400ac8:	f946f000 	ldr	x0, [x0, #3552]
  400acc:	f9400021 	ldr	x1, [x1]
  400ad0:	9278dc21 	and	x1, x1, #0xffffffffffffff00
  400ad4:	f907d261 	str	x1, [x19, #4000]
  400ad8:	b4000040 	cbz	x0, 400ae0 <__libc_start_main+0x1bc>
  400adc:	d503201f 	nop
  400ae0:	f946ab20 	ldr	x0, [x25, #3408]
  400ae4:	913e8273 	add	x19, x19, #0xfa0
  400ae8:	f9400400 	ldr	x0, [x0, #8]
  400aec:	f9000660 	str	x0, [x19, #8]
  400af0:	f94037e0 	ldr	x0, [sp, #104]
  400af4:	b4000080 	cbz	x0, 400b04 <__libc_start_main+0x1e0>
  400af8:	d2800002 	mov	x2, #0x0                   	// #0
  400afc:	d2800001 	mov	x1, #0x0                   	// #0
  400b00:	94000200 	bl	401300 <__cxa_atexit>
  400b04:	52800020 	mov	w0, #0x1                   	// #1
  400b08:	94002f7a 	bl	40c8f0 <__libc_early_init>
  400b0c:	f9433ec2 	ldr	x2, [x22, #1656]
  400b10:	aa1503e1 	mov	x1, x21
  400b14:	2a1403e0 	mov	w0, w20
  400b18:	94002fa6 	bl	40c9b0 <__libc_init_first>
  400b1c:	90000000 	adrp	x0, 400000 <__ehdr_start>
  400b20:	d2800002 	mov	x2, #0x0                   	// #0
  400b24:	91210000 	add	x0, x0, #0x840
  400b28:	d2800001 	mov	x1, #0x0                   	// #0
  400b2c:	940001f5 	bl	401300 <__cxa_atexit>
  400b30:	90000480 	adrp	x0, 490000 <.got.plt+0x18>
  400b34:	b94ff800 	ldr	w0, [x0, #4088]
  400b38:	350005a0 	cbnz	w0, 400bec <__libc_start_main+0x2c8>
  400b3c:	90000460 	adrp	x0, 48c000 <__FRAME_END__+0x1668c>
  400b40:	90000477 	adrp	x23, 48c000 <__FRAME_END__+0x1668c>
  400b44:	91148000 	add	x0, x0, #0x520
  400b48:	911482f7 	add	x23, x23, #0x520
  400b4c:	cb170019 	sub	x25, x0, x23
  400b50:	f9433ed6 	ldr	x22, [x22, #1656]
  400b54:	9343ff39 	asr	x25, x25, #3
  400b58:	eb17001f 	cmp	x0, x23
  400b5c:	54000160 	b.eq	400b88 <__libc_start_main+0x264>  // b.none
  400b60:	d2800013 	mov	x19, #0x0                   	// #0
  400b64:	d503201f 	nop
  400b68:	f8737ae3 	ldr	x3, [x23, x19, lsl #3]
  400b6c:	aa1603e2 	mov	x2, x22
  400b70:	aa1503e1 	mov	x1, x21
  400b74:	2a1403e0 	mov	w0, w20
  400b78:	91000673 	add	x19, x19, #0x1
  400b7c:	d63f0060 	blr	x3
  400b80:	eb19027f 	cmp	x19, x25
  400b84:	54ffff23 	b.cc	400b68 <__libc_start_main+0x244>  // b.lo, b.ul, b.last
  400b88:	97fffda8 	bl	400228 <_init>
  400b8c:	90000477 	adrp	x23, 48c000 <__FRAME_END__+0x1668c>
  400b90:	90000460 	adrp	x0, 48c000 <__FRAME_END__+0x1668c>
  400b94:	911482f7 	add	x23, x23, #0x520
  400b98:	9114c000 	add	x0, x0, #0x530
  400b9c:	cb170019 	sub	x25, x0, x23
  400ba0:	9343ff39 	asr	x25, x25, #3
  400ba4:	eb17001f 	cmp	x0, x23
  400ba8:	54000140 	b.eq	400bd0 <__libc_start_main+0x2ac>  // b.none
  400bac:	d2800013 	mov	x19, #0x0                   	// #0
  400bb0:	f8737ae3 	ldr	x3, [x23, x19, lsl #3]
  400bb4:	aa1603e2 	mov	x2, x22
  400bb8:	aa1503e1 	mov	x1, x21
  400bbc:	2a1403e0 	mov	w0, w20
  400bc0:	91000673 	add	x19, x19, #0x1
  400bc4:	d63f0060 	blr	x3
  400bc8:	eb13033f 	cmp	x25, x19
  400bcc:	54ffff28 	b.hi	400bb0 <__libc_start_main+0x28c>  // b.pmore
  400bd0:	d2800001 	mov	x1, #0x0                   	// #0
  400bd4:	d2800000 	mov	x0, #0x0                   	// #0
  400bd8:	94002782 	bl	40a9e0 <_dl_debug_initialize>
  400bdc:	f94033e0 	ldr	x0, [sp, #96]
  400be0:	aa1503e2 	mov	x2, x21
  400be4:	2a1403e1 	mov	w1, w20
  400be8:	97ffff2a 	bl	400890 <__libc_start_call_main>
  400bec:	94000035 	bl	400cc0 <__libc_check_standard_fds>
  400bf0:	17ffffd3 	b	400b3c <__libc_start_main+0x218>
  400bf4:	d503201f 	nop
  400bf8:	d503201f 	nop
  400bfc:	d503201f 	nop

0000000000400c00 <check_one_fd>:
  400c00:	a9b57bfd 	stp	x29, x30, [sp, #-176]!
  400c04:	910003fd 	mov	x29, sp
  400c08:	a90153f3 	stp	x19, x20, [sp, #16]
  400c0c:	2a0103f4 	mov	w20, w1
  400c10:	2a0003f3 	mov	w19, w0
  400c14:	52800021 	mov	w1, #0x1                   	// #1
  400c18:	940023aa 	bl	409ac0 <__fcntl64_nocancel>
  400c1c:	3100041f 	cmn	w0, #0x1
  400c20:	54000080 	b.eq	400c30 <check_one_fd+0x30>  // b.none
  400c24:	a94153f3 	ldp	x19, x20, [sp, #16]
  400c28:	a8cb7bfd 	ldp	x29, x30, [sp], #176
  400c2c:	d65f03c0 	ret
  400c30:	d2a00000 	movz	x0, #0x0, lsl #16
  400c34:	f2800500 	movk	x0, #0x28
  400c38:	d53bd041 	mrs	x1, tpidr_el0
  400c3c:	b8606820 	ldr	w0, [x1, x0]
  400c40:	7100241f 	cmp	w0, #0x9
  400c44:	54ffff01 	b.ne	400c24 <check_one_fd+0x24>  // b.any
  400c48:	f90013f5 	str	x21, [sp, #32]
  400c4c:	7140229f 	cmp	w20, #0x8, lsl #12
  400c50:	54000301 	b.ne	400cb0 <check_one_fd+0xb0>  // b.any
  400c54:	f0000260 	adrp	x0, 44f000 <_Unwind_Find_FDE+0x430>
  400c58:	9131e000 	add	x0, x0, #0xc78
  400c5c:	d2802075 	mov	x21, #0x103                 	// #259
  400c60:	2a1403e1 	mov	w1, w20
  400c64:	52800002 	mov	w2, #0x0                   	// #0
  400c68:	940023e6 	bl	409c00 <__open64_nocancel>
  400c6c:	6b00027f 	cmp	w19, w0
  400c70:	54000081 	b.ne	400c80 <check_one_fd+0x80>  // b.any
  400c74:	9100c3e1 	add	x1, sp, #0x30
  400c78:	94002362 	bl	409a00 <__fstat>
  400c7c:	34000080 	cbz	w0, 400c8c <check_one_fd+0x8c>
  400c80:	d4207d00 	brk	#0x3e8
  400c84:	d4207d00 	brk	#0x3e8
  400c88:	17fffffe 	b	400c80 <check_one_fd+0x80>
  400c8c:	b94043e0 	ldr	w0, [sp, #64]
  400c90:	12140c00 	and	w0, w0, #0xf000
  400c94:	7140081f 	cmp	w0, #0x2, lsl #12
  400c98:	54ffff41 	b.ne	400c80 <check_one_fd+0x80>  // b.any
  400c9c:	f9402be0 	ldr	x0, [sp, #80]
  400ca0:	eb15001f 	cmp	x0, x21
  400ca4:	54fffee1 	b.ne	400c80 <check_one_fd+0x80>  // b.any
  400ca8:	f94013f5 	ldr	x21, [sp, #32]
  400cac:	17ffffde 	b	400c24 <check_one_fd+0x24>
  400cb0:	f0000260 	adrp	x0, 44f000 <_Unwind_Find_FDE+0x430>
  400cb4:	d28020f5 	mov	x21, #0x107                 	// #263
  400cb8:	9131a000 	add	x0, x0, #0xc68
  400cbc:	17ffffe9 	b	400c60 <check_one_fd+0x60>

0000000000400cc0 <__libc_check_standard_fds>:
  400cc0:	a9bf7bfd 	stp	x29, x30, [sp, #-16]!
  400cc4:	52900021 	mov	w1, #0x8001                	// #32769
  400cc8:	52800000 	mov	w0, #0x0                   	// #0
  400ccc:	910003fd 	mov	x29, sp
  400cd0:	97ffffcc 	bl	400c00 <check_one_fd>
  400cd4:	52900001 	mov	w1, #0x8000                	// #32768
  400cd8:	52800020 	mov	w0, #0x1                   	// #1
  400cdc:	97ffffc9 	bl	400c00 <check_one_fd>
  400ce0:	a8c17bfd 	ldp	x29, x30, [sp], #16
  400ce4:	52900001 	mov	w1, #0x8000                	// #32768
  400ce8:	52800040 	mov	w0, #0x2                   	// #2
  400cec:	17ffffc5 	b	400c00 <check_one_fd>

0000000000400cf0 <__libc_setup_tls>:
  400cf0:	f0000460 	adrp	x0, 48f000 <_IO_file_jumps+0x130>
  400cf4:	f947f000 	ldr	x0, [x0, #4064]
  400cf8:	a9b87bfd 	stp	x29, x30, [sp, #-128]!
  400cfc:	910003fd 	mov	x29, sp
  400d00:	a90153f3 	stp	x19, x20, [sp, #16]
  400d04:	a9025bf5 	stp	x21, x22, [sp, #32]
  400d08:	a90363f7 	stp	x23, x24, [sp, #48]
  400d0c:	a9046bf9 	stp	x25, x26, [sp, #64]
  400d10:	a90573fb 	stp	x27, x28, [sp, #80]
  400d14:	f940001c 	ldr	x28, [x0]
  400d18:	940029d6 	bl	40b470 <__tls_pre_init_tp>
  400d1c:	f0000461 	adrp	x1, 48f000 <_IO_file_jumps+0x130>
  400d20:	f9479821 	ldr	x1, [x1, #3888]
  400d24:	f0000460 	adrp	x0, 48f000 <_IO_file_jumps+0x130>
  400d28:	f9472800 	ldr	x0, [x0, #3664]
  400d2c:	f9400021 	ldr	x1, [x1]
  400d30:	f9400000 	ldr	x0, [x0]
  400d34:	d37df022 	lsl	x2, x1, #3
  400d38:	cb010042 	sub	x2, x2, x1
  400d3c:	8b020c02 	add	x2, x0, x2, lsl #3
  400d40:	eb02001f 	cmp	x0, x2
  400d44:	540000a3 	b.cc	400d58 <__libc_setup_tls+0x68>  // b.lo, b.ul, b.last
  400d48:	14000073 	b	400f14 <__libc_setup_tls+0x224>
  400d4c:	9100e000 	add	x0, x0, #0x38
  400d50:	eb02001f 	cmp	x0, x2
  400d54:	54000ae2 	b.cs	400eb0 <__libc_setup_tls+0x1c0>  // b.hs, b.nlast
  400d58:	b9400001 	ldr	w1, [x0]
  400d5c:	71001c3f 	cmp	w1, #0x7
  400d60:	54ffff61 	b.ne	400d4c <__libc_setup_tls+0x5c>  // b.any
  400d64:	a942e01b 	ldp	x27, x24, [x0, #40]
  400d68:	d2800414 	mov	x20, #0x20                  	// #32
  400d6c:	f9400801 	ldr	x1, [x0, #16]
  400d70:	f9400395 	ldr	x21, [x28]
  400d74:	eb14031f 	cmp	x24, x20
  400d78:	9a942314 	csel	x20, x24, x20, cs	// cs = hs, nlast
  400d7c:	f100031f 	cmp	x24, #0x0
  400d80:	d1000682 	sub	x2, x20, #0x1
  400d84:	f9003be2 	str	x2, [sp, #112]
  400d88:	f9401002 	ldr	x2, [x0, #32]
  400d8c:	f90033e2 	str	x2, [sp, #96]
  400d90:	cb1403e2 	neg	x2, x20
  400d94:	9a9f1716 	csinc	x22, x24, xzr, ne	// ne = any
  400d98:	8b0102b5 	add	x21, x21, x1
  400d9c:	d2800000 	mov	x0, #0x0                   	// #0
  400da0:	f9003fe2 	str	x2, [sp, #120]
  400da4:	940027eb 	bl	40ad50 <_dl_tls_static_surplus_init>
  400da8:	b40008f8 	cbz	x24, 400ec4 <__libc_setup_tls+0x1d4>
  400dac:	91003f05 	add	x5, x24, #0xf
  400db0:	9ad808a5 	udiv	x5, x5, x24
  400db4:	9b167cb9 	mul	x25, x5, x22
  400db8:	aa1903e7 	mov	x7, x25
  400dbc:	b0000497 	adrp	x23, 491000 <DW.ref.__gcc_personality_v0>
  400dc0:	8b140361 	add	x1, x27, x20
  400dc4:	f90037e7 	str	x7, [sp, #104]
  400dc8:	f944c6e0 	ldr	x0, [x23, #2440]
  400dcc:	911d0000 	add	x0, x0, #0x740
  400dd0:	8b010000 	add	x0, x0, x1
  400dd4:	8b190000 	add	x0, x0, x25
  400dd8:	94002bfa 	bl	40bdc0 <_dl_early_allocate>
  400ddc:	f94037e7 	ldr	x7, [sp, #104]
  400de0:	aa0003e3 	mov	x3, x0
  400de4:	b4000840 	cbz	x0, 400eec <__libc_setup_tls+0x1fc>
  400de8:	f9403be0 	ldr	x0, [sp, #112]
  400dec:	911d0073 	add	x19, x3, #0x740
  400df0:	f94033e2 	ldr	x2, [sp, #96]
  400df4:	8b000273 	add	x19, x19, x0
  400df8:	f9403fe0 	ldr	x0, [sp, #120]
  400dfc:	912622fa 	add	x26, x23, #0x988
  400e00:	f9024f87 	str	x7, [x28, #1176]
  400e04:	d28007c7 	mov	x7, #0x3e                  	// #62
  400e08:	8a000273 	and	x19, x19, x0
  400e0c:	aa1503e1 	mov	x1, x21
  400e10:	8b190260 	add	x0, x19, x25
  400e14:	f9000747 	str	x7, [x26, #8]
  400e18:	a902ff40 	stp	x0, xzr, [x26, #40]
  400e1c:	97fffd0d 	bl	400250 <.plt+0x10>
  400e20:	91006340 	add	x0, x26, #0x18
  400e24:	f9000260 	str	x0, [x19]
  400e28:	d51bd053 	msr	tpidr_el0, x19
  400e2c:	9400299d 	bl	40b4a0 <__tls_init_tp>
  400e30:	f9021b5c 	str	x28, [x26, #1072]
  400e34:	d2800803 	mov	x3, #0x40                  	// #64
  400e38:	9111c384 	add	x4, x28, #0x470
  400e3c:	f9020743 	str	x3, [x26, #1032]
  400e40:	91206343 	add	x3, x26, #0x818
  400e44:	8b180360 	add	x0, x27, x24
  400e48:	f100031f 	cmp	x24, #0x0
  400e4c:	d1000400 	sub	x0, x0, #0x1
  400e50:	d2800021 	mov	x1, #0x1                   	// #1
  400e54:	a9020474 	stp	x20, x1, [x3, #32]
  400e58:	91102342 	add	x2, x26, #0x408
  400e5c:	a94153f3 	ldp	x19, x20, [sp, #16]
  400e60:	a901609b 	stp	x27, x24, [x4, #16]
  400e64:	9a9b101b 	csel	x27, x0, x27, ne	// ne = any
  400e68:	f944c6e0 	ldr	x0, [x23, #2440]
  400e6c:	a9000861 	stp	x1, x2, [x3]
  400e70:	9ad60b7b 	udiv	x27, x27, x22
  400e74:	91007c00 	add	x0, x0, #0x1f
  400e78:	f94033e3 	ldr	x3, [sp, #96]
  400e7c:	a9000c95 	stp	x21, x3, [x4]
  400e80:	9b16677b 	madd	x27, x27, x22, x25
  400e84:	f9025381 	str	x1, [x28, #1184]
  400e88:	a9425bf5 	ldp	x21, x22, [sp, #32]
  400e8c:	8b1b0000 	add	x0, x0, x27
  400e90:	a94363f7 	ldp	x23, x24, [sp, #48]
  400e94:	927be800 	and	x0, x0, #0xffffffffffffffe0
  400e98:	f9041740 	str	x0, [x26, #2088]
  400e9c:	f9041b5b 	str	x27, [x26, #2096]
  400ea0:	a9446bf9 	ldp	x25, x26, [sp, #64]
  400ea4:	a94573fb 	ldp	x27, x28, [sp, #80]
  400ea8:	a8c87bfd 	ldp	x29, x30, [sp], #128
  400eac:	d65f03c0 	ret
  400eb0:	d2800000 	mov	x0, #0x0                   	// #0
  400eb4:	d2800015 	mov	x21, #0x0                   	// #0
  400eb8:	940027a6 	bl	40ad50 <_dl_tls_static_surplus_init>
  400ebc:	d280001b 	mov	x27, #0x0                   	// #0
  400ec0:	f90033ff 	str	xzr, [sp, #96]
  400ec4:	928003e0 	mov	x0, #0xffffffffffffffe0    	// #-32
  400ec8:	d2800207 	mov	x7, #0x10                  	// #16
  400ecc:	d2800036 	mov	x22, #0x1                   	// #1
  400ed0:	aa0703f9 	mov	x25, x7
  400ed4:	d2800414 	mov	x20, #0x20                  	// #32
  400ed8:	d2800018 	mov	x24, #0x0                   	// #0
  400edc:	f9003fe0 	str	x0, [sp, #120]
  400ee0:	d28003e0 	mov	x0, #0x1f                  	// #31
  400ee4:	f9003be0 	str	x0, [sp, #112]
  400ee8:	17ffffb5 	b	400dbc <__libc_setup_tls+0xcc>
  400eec:	f0000261 	adrp	x1, 44f000 <_Unwind_Find_FDE+0x430>
  400ef0:	d2800040 	mov	x0, #0x2                   	// #2
  400ef4:	91322021 	add	x1, x1, #0xc88
  400ef8:	d28005a2 	mov	x2, #0x2d                  	// #45
  400efc:	d2800808 	mov	x8, #0x40                  	// #64
  400f00:	d4000001 	svc	#0x0
  400f04:	d2800fe0 	mov	x0, #0x7f                  	// #127
  400f08:	d2800bc8 	mov	x8, #0x5e                  	// #94
  400f0c:	d4000001 	svc	#0x0
  400f10:	17ffffb6 	b	400de8 <__libc_setup_tls+0xf8>
  400f14:	d2800000 	mov	x0, #0x0                   	// #0
  400f18:	9400278e 	bl	40ad50 <_dl_tls_static_surplus_init>
  400f1c:	928003e0 	mov	x0, #0xffffffffffffffe0    	// #-32
  400f20:	d2800207 	mov	x7, #0x10                  	// #16
  400f24:	d2800036 	mov	x22, #0x1                   	// #1
  400f28:	aa0703f9 	mov	x25, x7
  400f2c:	d2800414 	mov	x20, #0x20                  	// #32
  400f30:	d2800018 	mov	x24, #0x0                   	// #0
  400f34:	d2800015 	mov	x21, #0x0                   	// #0
  400f38:	d280001b 	mov	x27, #0x0                   	// #0
  400f3c:	f90033ff 	str	xzr, [sp, #96]
  400f40:	f9003fe0 	str	x0, [sp, #120]
  400f44:	d28003e0 	mov	x0, #0x1f                  	// #31
  400f48:	f9003be0 	str	x0, [sp, #112]
  400f4c:	17ffff9c 	b	400dbc <__libc_setup_tls+0xcc>

0000000000400f50 <__tls_get_addr>:
  400f50:	d53bd041 	mrs	x1, tpidr_el0
  400f54:	f9400400 	ldr	x0, [x0, #8]
  400f58:	f9400021 	ldr	x1, [x1]
  400f5c:	f9400821 	ldr	x1, [x1, #16]
  400f60:	8b000020 	add	x0, x1, x0
  400f64:	d65f03c0 	ret
  400f68:	d503201f 	nop
  400f6c:	d503201f 	nop
  400f70:	d503201f 	nop
  400f74:	d503201f 	nop
  400f78:	d503201f 	nop
  400f7c:	d503201f 	nop

0000000000400f80 <setjmp>:
  400f80:	d503201f 	nop
  400f84:	d2800021 	mov	x1, #0x1                   	// #1
  400f88:	1400001f 	b	401004 <__sigsetjmp+0x4>
  400f8c:	d503201f 	nop
  400f90:	d503201f 	nop
  400f94:	d503201f 	nop
  400f98:	d503201f 	nop
  400f9c:	d503201f 	nop
  400fa0:	d503201f 	nop
  400fa4:	d503201f 	nop
  400fa8:	d503201f 	nop
  400fac:	d503201f 	nop
  400fb0:	d503201f 	nop
  400fb4:	d503201f 	nop
  400fb8:	d503201f 	nop
  400fbc:	d503201f 	nop

0000000000400fc0 <_setjmp>:
  400fc0:	d503201f 	nop
  400fc4:	d2800001 	mov	x1, #0x0                   	// #0
  400fc8:	1400000f 	b	401004 <__sigsetjmp+0x4>
  400fcc:	d503201f 	nop
  400fd0:	d503201f 	nop
  400fd4:	d503201f 	nop
  400fd8:	d503201f 	nop
  400fdc:	d503201f 	nop
  400fe0:	d503201f 	nop
  400fe4:	d503201f 	nop
  400fe8:	d503201f 	nop
  400fec:	d503201f 	nop
  400ff0:	d503201f 	nop
  400ff4:	d503201f 	nop
  400ff8:	d503201f 	nop
  400ffc:	d503201f 	nop

0000000000401000 <__sigsetjmp>:
  401000:	d503201f 	nop
  401004:	a9005013 	stp	x19, x20, [x0]
  401008:	a9015815 	stp	x21, x22, [x0, #16]
  40100c:	a9026017 	stp	x23, x24, [x0, #32]
  401010:	a9036819 	stp	x25, x26, [x0, #48]
  401014:	a904701b 	stp	x27, x28, [x0, #64]
  401018:	90000462 	adrp	x2, 48d000 <_sys_errlist_internal+0x2c0>
  40101c:	f947d443 	ldr	x3, [x2, #4008]
  401020:	ca0303c4 	eor	x4, x30, x3
  401024:	a905101d 	stp	x29, x4, [x0, #80]
  401028:	6d072408 	stp	d8, d9, [x0, #112]
  40102c:	6d082c0a 	stp	d10, d11, [x0, #128]
  401030:	6d09340c 	stp	d12, d13, [x0, #144]
  401034:	6d0a3c0e 	stp	d14, d15, [x0, #160]
  401038:	910003e4 	mov	x4, sp
  40103c:	90000462 	adrp	x2, 48d000 <_sys_errlist_internal+0x2c0>
  401040:	f947d443 	ldr	x3, [x2, #4008]
  401044:	ca030085 	eor	x5, x4, x3
  401048:	f9003405 	str	x5, [x0, #104]
  40104c:	14000001 	b	401050 <__sigjmp_save>

0000000000401050 <__sigjmp_save>:
  401050:	a9be7bfd 	stp	x29, x30, [sp, #-32]!
  401054:	910003fd 	mov	x29, sp
  401058:	f9000bf3 	str	x19, [sp, #16]
  40105c:	aa0003f3 	mov	x19, x0
  401060:	350000c1 	cbnz	w1, 401078 <__sigjmp_save+0x28>
  401064:	b900b261 	str	w1, [x19, #176]
  401068:	52800000 	mov	w0, #0x0                   	// #0
  40106c:	f9400bf3 	ldr	x19, [sp, #16]
  401070:	a8c27bfd 	ldp	x29, x30, [sp], #32
  401074:	d65f03c0 	ret
  401078:	9102e002 	add	x2, x0, #0xb8
  40107c:	d2800001 	mov	x1, #0x0                   	// #0
  401080:	52800000 	mov	w0, #0x0                   	// #0
  401084:	9400000b 	bl	4010b0 <__sigprocmask>
  401088:	7100001f 	cmp	w0, #0x0
  40108c:	52800000 	mov	w0, #0x0                   	// #0
  401090:	1a9f17e1 	cset	w1, eq	// eq = none
  401094:	b900b261 	str	w1, [x19, #176]
  401098:	f9400bf3 	ldr	x19, [sp, #16]
  40109c:	a8c27bfd 	ldp	x29, x30, [sp], #32
  4010a0:	d65f03c0 	ret
  4010a4:	d503201f 	nop
  4010a8:	d503201f 	nop
  4010ac:	d503201f 	nop

00000000004010b0 <__sigprocmask>:
  4010b0:	a9bf7bfd 	stp	x29, x30, [sp, #-16]!
  4010b4:	910003fd 	mov	x29, sp
  4010b8:	9400025a 	bl	401a20 <__pthread_sigmask>
  4010bc:	35000060 	cbnz	w0, 4010c8 <__sigprocmask+0x18>
  4010c0:	a8c17bfd 	ldp	x29, x30, [sp], #16
  4010c4:	d65f03c0 	ret
  4010c8:	d2a00001 	movz	x1, #0x0, lsl #16
  4010cc:	f2800501 	movk	x1, #0x28
  4010d0:	d53bd042 	mrs	x2, tpidr_el0
  4010d4:	b8216840 	str	w0, [x2, x1]
  4010d8:	12800000 	mov	w0, #0xffffffff            	// #-1
  4010dc:	17fffff9 	b	4010c0 <__sigprocmask+0x10>

00000000004010e0 <__new_exitfn>:
  4010e0:	a9be7bfd 	stp	x29, x30, [sp, #-32]!
  4010e4:	b0000481 	adrp	x1, 492000 <static_slotinfo+0x270>
  4010e8:	910003fd 	mov	x29, sp
  4010ec:	a90153f3 	stp	x19, x20, [sp, #16]
  4010f0:	aa0003f3 	mov	x19, x0
  4010f4:	3958a020 	ldrb	w0, [x1, #1576]
  4010f8:	37000620 	tbnz	w0, #0, 4011bc <__new_exitfn+0xdc>
  4010fc:	f9400274 	ldr	x20, [x19]
  401100:	d2800006 	mov	x6, #0x0                   	// #0
  401104:	aa1403e5 	mov	x5, x20
  401108:	b4000634 	cbz	x20, 4011cc <__new_exitfn+0xec>
  40110c:	d503201f 	nop
  401110:	f94004a1 	ldr	x1, [x5, #8]
  401114:	910040a4 	add	x4, x5, #0x10
  401118:	b4000101 	cbz	x1, 401138 <__new_exitfn+0x58>
  40111c:	d503201f 	nop
  401120:	d1000422 	sub	x2, x1, #0x1
  401124:	d37be843 	lsl	x3, x2, #5
  401128:	f8636883 	ldr	x3, [x4, x3]
  40112c:	b5000123 	cbnz	x3, 401150 <__new_exitfn+0x70>
  401130:	aa0203e1 	mov	x1, x2
  401134:	b5ffff61 	cbnz	x1, 401120 <__new_exitfn+0x40>
  401138:	f94000a1 	ldr	x1, [x5]
  40113c:	f90004bf 	str	xzr, [x5, #8]
  401140:	aa0503e6 	mov	x6, x5
  401144:	b4000341 	cbz	x1, 4011ac <__new_exitfn+0xcc>
  401148:	aa0103e5 	mov	x5, x1
  40114c:	17fffff1 	b	401110 <__new_exitfn+0x30>
  401150:	f100803f 	cmp	x1, #0x20
  401154:	540001c0 	b.eq	40118c <__new_exitfn+0xac>  // b.none
  401158:	8b0114a0 	add	x0, x5, x1, lsl #5
  40115c:	91000421 	add	x1, x1, #0x1
  401160:	91004000 	add	x0, x0, #0x10
  401164:	f90004a1 	str	x1, [x5, #8]
  401168:	b0000482 	adrp	x2, 492000 <static_slotinfo+0x270>
  40116c:	d2800021 	mov	x1, #0x1                   	// #1
  401170:	f9000001 	str	x1, [x0]
  401174:	f9410441 	ldr	x1, [x2, #520]
  401178:	a94153f3 	ldp	x19, x20, [sp, #16]
  40117c:	91000421 	add	x1, x1, #0x1
  401180:	a8c27bfd 	ldp	x29, x30, [sp], #32
  401184:	f9010441 	str	x1, [x2, #520]
  401188:	d65f03c0 	ret
  40118c:	b5000306 	cbnz	x6, 4011ec <__new_exitfn+0x10c>
  401190:	d2808201 	mov	x1, #0x410                 	// #1040
  401194:	d2800020 	mov	x0, #0x1                   	// #1
  401198:	94001692 	bl	406be0 <__calloc>
  40119c:	aa0003e5 	mov	x5, x0
  4011a0:	b40000e0 	cbz	x0, 4011bc <__new_exitfn+0xdc>
  4011a4:	f9000014 	str	x20, [x0]
  4011a8:	f9000260 	str	x0, [x19]
  4011ac:	d2800021 	mov	x1, #0x1                   	// #1
  4011b0:	910040a0 	add	x0, x5, #0x10
  4011b4:	f90004a1 	str	x1, [x5, #8]
  4011b8:	17ffffec 	b	401168 <__new_exitfn+0x88>
  4011bc:	a94153f3 	ldp	x19, x20, [sp, #16]
  4011c0:	d2800000 	mov	x0, #0x0                   	// #0
  4011c4:	a8c27bfd 	ldp	x29, x30, [sp], #32
  4011c8:	d65f03c0 	ret
  4011cc:	d0000263 	adrp	x3, 44f000 <_Unwind_Find_FDE+0x430>
  4011d0:	d0000261 	adrp	x1, 44f000 <_Unwind_Find_FDE+0x430>
  4011d4:	d0000260 	adrp	x0, 44f000 <_Unwind_Find_FDE+0x430>
  4011d8:	9133a063 	add	x3, x3, #0xce8
  4011dc:	9132e021 	add	x1, x1, #0xcb8
  4011e0:	91332000 	add	x0, x0, #0xcc8
  4011e4:	52800dc2 	mov	w2, #0x6e                  	// #110
  4011e8:	94002e12 	bl	40ca30 <__libc_assert_fail>
  4011ec:	aa0603e5 	mov	x5, x6
  4011f0:	17ffffef 	b	4011ac <__new_exitfn+0xcc>

00000000004011f4 <__internal_atexit>:
  4011f4:	a9bc7bfd 	stp	x29, x30, [sp, #-64]!
  4011f8:	910003fd 	mov	x29, sp
  4011fc:	a90153f3 	stp	x19, x20, [sp, #16]
  401200:	a9025bf5 	stp	x21, x22, [sp, #32]
  401204:	a90363f7 	stp	x23, x24, [sp, #48]
  401208:	b40006a0 	cbz	x0, 4012dc <__internal_atexit+0xe8>
  40120c:	b0000493 	adrp	x19, 492000 <static_slotinfo+0x270>
  401210:	91082275 	add	x21, x19, #0x208
  401214:	910022b5 	add	x21, x21, #0x8
  401218:	aa0003f4 	mov	x20, x0
  40121c:	aa0103f7 	mov	x23, x1
  401220:	aa0203f6 	mov	x22, x2
  401224:	aa0303f8 	mov	x24, x3
  401228:	aa1503e2 	mov	x2, x21
  40122c:	52800021 	mov	w1, #0x1                   	// #1
  401230:	52800000 	mov	w0, #0x0                   	// #0
  401234:	94011fb7 	bl	449110 <__aarch64_cas4_acq>
  401238:	35000340 	cbnz	w0, 4012a0 <__internal_atexit+0xac>
  40123c:	aa1803e0 	mov	x0, x24
  401240:	97ffffa8 	bl	4010e0 <__new_exitfn>
  401244:	b4000340 	cbz	x0, 4012ac <__internal_atexit+0xb8>
  401248:	90000461 	adrp	x1, 48d000 <_sys_errlist_internal+0x2c0>
  40124c:	91082273 	add	x19, x19, #0x208
  401250:	d2800082 	mov	x2, #0x4                   	// #4
  401254:	a9015817 	stp	x23, x22, [x0, #16]
  401258:	91002273 	add	x19, x19, #0x8
  40125c:	f947d421 	ldr	x1, [x1, #4008]
  401260:	ca010294 	eor	x20, x20, x1
  401264:	a9005002 	stp	x2, x20, [x0]
  401268:	aa1303e1 	mov	x1, x19
  40126c:	52800000 	mov	w0, #0x0                   	// #0
  401270:	94012054 	bl	4493c0 <__aarch64_swp4_rel>
  401274:	7100041f 	cmp	w0, #0x1
  401278:	540000ec 	b.gt	401294 <__internal_atexit+0xa0>
  40127c:	52800000 	mov	w0, #0x0                   	// #0
  401280:	a94153f3 	ldp	x19, x20, [sp, #16]
  401284:	a9425bf5 	ldp	x21, x22, [sp, #32]
  401288:	a94363f7 	ldp	x23, x24, [sp, #48]
  40128c:	a8c47bfd 	ldp	x29, x30, [sp], #64
  401290:	d65f03c0 	ret
  401294:	aa1303e0 	mov	x0, x19
  401298:	94000186 	bl	4018b0 <__lll_lock_wake_private>
  40129c:	17fffff8 	b	40127c <__internal_atexit+0x88>
  4012a0:	aa1503e0 	mov	x0, x21
  4012a4:	94000147 	bl	4017c0 <__lll_lock_wait_private>
  4012a8:	17ffffe5 	b	40123c <__internal_atexit+0x48>
  4012ac:	91082273 	add	x19, x19, #0x208
  4012b0:	91002273 	add	x19, x19, #0x8
  4012b4:	aa1303e1 	mov	x1, x19
  4012b8:	94012042 	bl	4493c0 <__aarch64_swp4_rel>
  4012bc:	7100041f 	cmp	w0, #0x1
  4012c0:	5400006c 	b.gt	4012cc <__internal_atexit+0xd8>
  4012c4:	12800000 	mov	w0, #0xffffffff            	// #-1
  4012c8:	17ffffee 	b	401280 <__internal_atexit+0x8c>
  4012cc:	aa1303e0 	mov	x0, x19
  4012d0:	94000178 	bl	4018b0 <__lll_lock_wake_private>
  4012d4:	12800000 	mov	w0, #0xffffffff            	// #-1
  4012d8:	17ffffea 	b	401280 <__internal_atexit+0x8c>
  4012dc:	d0000263 	adrp	x3, 44f000 <_Unwind_Find_FDE+0x430>
  4012e0:	d0000261 	adrp	x1, 44f000 <_Unwind_Find_FDE+0x430>
  4012e4:	d0000260 	adrp	x0, 44f000 <_Unwind_Find_FDE+0x430>
  4012e8:	9133e063 	add	x3, x3, #0xcf8
  4012ec:	9132e021 	add	x1, x1, #0xcb8
  4012f0:	91336000 	add	x0, x0, #0xcd8
  4012f4:	52800522 	mov	w2, #0x29                  	// #41
  4012f8:	94002dce 	bl	40ca30 <__libc_assert_fail>
  4012fc:	d503201f 	nop

0000000000401300 <__cxa_atexit>:
  401300:	f0000463 	adrp	x3, 490000 <.got.plt+0x18>
  401304:	91010063 	add	x3, x3, #0x40
  401308:	17ffffbb 	b	4011f4 <__internal_atexit>
  40130c:	d503201f 	nop

0000000000401310 <__run_exit_handlers>:
  401310:	a9ba7bfd 	stp	x29, x30, [sp, #-96]!
  401314:	12001c63 	and	w3, w3, #0xff
  401318:	d0000464 	adrp	x4, 48f000 <_IO_file_jumps+0x130>
  40131c:	f947c484 	ldr	x4, [x4, #3976]
  401320:	910003fd 	mov	x29, sp
  401324:	a90153f3 	stp	x19, x20, [sp, #16]
  401328:	f100009f 	cmp	x4, #0x0
  40132c:	a9025bf5 	stp	x21, x22, [sp, #32]
  401330:	7a401864 	ccmp	w3, #0x0, #0x4, ne	// ne = any
  401334:	a90363f7 	stp	x23, x24, [sp, #48]
  401338:	2a0003f7 	mov	w23, w0
  40133c:	aa0103f8 	mov	x24, x1
  401340:	a9046bf9 	stp	x25, x26, [sp, #64]
  401344:	12001c59 	and	w25, w2, #0xff
  401348:	a90573fb 	stp	x27, x28, [sp, #80]
  40134c:	54000e21 	b.ne	401510 <__run_exit_handlers+0x200>  // b.any
  401350:	d0000462 	adrp	x2, 48f000 <_IO_file_jumps+0x130>
  401354:	f9469442 	ldr	x2, [x2, #3368]
  401358:	52800021 	mov	w1, #0x1                   	// #1
  40135c:	52800000 	mov	w0, #0x0                   	// #0
  401360:	94011f6c 	bl	449110 <__aarch64_cas4_acq>
  401364:	35000e20 	cbnz	w0, 401528 <__run_exit_handlers+0x218>
  401368:	f9400313 	ldr	x19, [x24]
  40136c:	b40004f3 	cbz	x19, 401408 <__run_exit_handlers+0xf8>
  401370:	d0000475 	adrp	x21, 48f000 <_IO_file_jumps+0x130>
  401374:	f94696b5 	ldr	x21, [x21, #3368]
  401378:	b0000494 	adrp	x20, 492000 <static_slotinfo+0x270>
  40137c:	90000476 	adrp	x22, 48d000 <_sys_errlist_internal+0x2c0>
  401380:	f9400662 	ldr	x2, [x19, #8]
  401384:	b4000a62 	cbz	x2, 4014d0 <__run_exit_handlers+0x1c0>
  401388:	d1000442 	sub	x2, x2, #0x1
  40138c:	f9000662 	str	x2, [x19, #8]
  401390:	f941069a 	ldr	x26, [x20, #520]
  401394:	8b021662 	add	x2, x19, x2, lsl #5
  401398:	f9400840 	ldr	x0, [x2, #16]
  40139c:	f1000c1f 	cmp	x0, #0x3
  4013a0:	540007c0 	b.eq	401498 <__run_exit_handlers+0x188>  // b.none
  4013a4:	f100101f 	cmp	x0, #0x4
  4013a8:	54000500 	b.eq	401448 <__run_exit_handlers+0x138>  // b.none
  4013ac:	f100081f 	cmp	x0, #0x2
  4013b0:	54fffe81 	b.ne	401380 <__run_exit_handlers+0x70>  // b.any
  4013b4:	a941f05b 	ldp	x27, x28, [x2, #24]
  4013b8:	aa1503e1 	mov	x1, x21
  4013bc:	f947d6c3 	ldr	x3, [x22, #4008]
  4013c0:	52800000 	mov	w0, #0x0                   	// #0
  4013c4:	ca03037b 	eor	x27, x27, x3
  4013c8:	94011ffe 	bl	4493c0 <__aarch64_swp4_rel>
  4013cc:	7100041f 	cmp	w0, #0x1
  4013d0:	5400096c 	b.gt	4014fc <__run_exit_handlers+0x1ec>
  4013d4:	aa1c03e1 	mov	x1, x28
  4013d8:	2a1703e0 	mov	w0, w23
  4013dc:	d63f0360 	blr	x27
  4013e0:	aa1503e2 	mov	x2, x21
  4013e4:	52800021 	mov	w1, #0x1                   	// #1
  4013e8:	52800000 	mov	w0, #0x0                   	// #0
  4013ec:	94011f49 	bl	449110 <__aarch64_cas4_acq>
  4013f0:	350004e0 	cbnz	w0, 40148c <__run_exit_handlers+0x17c>
  4013f4:	f9410680 	ldr	x0, [x20, #520]
  4013f8:	eb1a001f 	cmp	x0, x26
  4013fc:	54fffc20 	b.eq	401380 <__run_exit_handlers+0x70>  // b.none
  401400:	f9400313 	ldr	x19, [x24]
  401404:	b5fffbf3 	cbnz	x19, 401380 <__run_exit_handlers+0x70>
  401408:	d0000461 	adrp	x1, 48f000 <_IO_file_jumps+0x130>
  40140c:	f9469421 	ldr	x1, [x1, #3368]
  401410:	b0000482 	adrp	x2, 492000 <static_slotinfo+0x270>
  401414:	52800023 	mov	w3, #0x1                   	// #1
  401418:	52800000 	mov	w0, #0x0                   	// #0
  40141c:	3918a043 	strb	w3, [x2, #1576]
  401420:	94011fe8 	bl	4493c0 <__aarch64_swp4_rel>
  401424:	7100041f 	cmp	w0, #0x1
  401428:	5400078c 	b.gt	401518 <__run_exit_handlers+0x208>
  40142c:	d0000460 	adrp	x0, 48f000 <_IO_file_jumps+0x130>
  401430:	f946dc00 	ldr	x0, [x0, #3512]
  401434:	f100001f 	cmp	x0, #0x0
  401438:	7a401b24 	ccmp	w25, #0x0, #0x4, ne	// ne = any
  40143c:	54000661 	b.ne	401508 <__run_exit_handlers+0x1f8>  // b.any
  401440:	2a1703e0 	mov	w0, w23
  401444:	9400215b 	bl	4099b0 <_exit>
  401448:	a941f05b 	ldp	x27, x28, [x2, #24]
  40144c:	f900085f 	str	xzr, [x2, #16]
  401450:	f947d6c0 	ldr	x0, [x22, #4008]
  401454:	aa1503e1 	mov	x1, x21
  401458:	ca00037b 	eor	x27, x27, x0
  40145c:	52800000 	mov	w0, #0x0                   	// #0
  401460:	94011fd8 	bl	4493c0 <__aarch64_swp4_rel>
  401464:	7100041f 	cmp	w0, #0x1
  401468:	5400044c 	b.gt	4014f0 <__run_exit_handlers+0x1e0>
  40146c:	aa1c03e0 	mov	x0, x28
  401470:	2a1703e1 	mov	w1, w23
  401474:	d63f0360 	blr	x27
  401478:	aa1503e2 	mov	x2, x21
  40147c:	52800021 	mov	w1, #0x1                   	// #1
  401480:	52800000 	mov	w0, #0x0                   	// #0
  401484:	94011f23 	bl	449110 <__aarch64_cas4_acq>
  401488:	34fffb60 	cbz	w0, 4013f4 <__run_exit_handlers+0xe4>
  40148c:	aa1503e0 	mov	x0, x21
  401490:	940000cc 	bl	4017c0 <__lll_lock_wait_private>
  401494:	17ffffd8 	b	4013f4 <__run_exit_handlers+0xe4>
  401498:	f9400c5b 	ldr	x27, [x2, #24]
  40149c:	aa1503e1 	mov	x1, x21
  4014a0:	f947d6c2 	ldr	x2, [x22, #4008]
  4014a4:	52800000 	mov	w0, #0x0                   	// #0
  4014a8:	ca02037b 	eor	x27, x27, x2
  4014ac:	94011fc5 	bl	4493c0 <__aarch64_swp4_rel>
  4014b0:	7100041f 	cmp	w0, #0x1
  4014b4:	5400006c 	b.gt	4014c0 <__run_exit_handlers+0x1b0>
  4014b8:	d63f0360 	blr	x27
  4014bc:	17ffffc9 	b	4013e0 <__run_exit_handlers+0xd0>
  4014c0:	aa1503e0 	mov	x0, x21
  4014c4:	940000fb 	bl	4018b0 <__lll_lock_wake_private>
  4014c8:	d63f0360 	blr	x27
  4014cc:	17ffffc5 	b	4013e0 <__run_exit_handlers+0xd0>
  4014d0:	f9400260 	ldr	x0, [x19]
  4014d4:	f9000300 	str	x0, [x24]
  4014d8:	b4fff980 	cbz	x0, 401408 <__run_exit_handlers+0xf8>
  4014dc:	aa1303e0 	mov	x0, x19
  4014e0:	94001368 	bl	406280 <__free>
  4014e4:	f9400313 	ldr	x19, [x24]
  4014e8:	b5fff4d3 	cbnz	x19, 401380 <__run_exit_handlers+0x70>
  4014ec:	17ffffc7 	b	401408 <__run_exit_handlers+0xf8>
  4014f0:	aa1503e0 	mov	x0, x21
  4014f4:	940000ef 	bl	4018b0 <__lll_lock_wake_private>
  4014f8:	17ffffdd 	b	40146c <__run_exit_handlers+0x15c>
  4014fc:	aa1503e0 	mov	x0, x21
  401500:	940000ec 	bl	4018b0 <__lll_lock_wake_private>
  401504:	17ffffb4 	b	4013d4 <__run_exit_handlers+0xc4>
  401508:	940052f2 	bl	4160d0 <_IO_cleanup>
  40150c:	17ffffcd 	b	401440 <__run_exit_handlers+0x130>
  401510:	d503201f 	nop
  401514:	17ffff8f 	b	401350 <__run_exit_handlers+0x40>
  401518:	d0000460 	adrp	x0, 48f000 <_IO_file_jumps+0x130>
  40151c:	f9469400 	ldr	x0, [x0, #3368]
  401520:	940000e4 	bl	4018b0 <__lll_lock_wake_private>
  401524:	17ffffc2 	b	40142c <__run_exit_handlers+0x11c>
  401528:	d0000460 	adrp	x0, 48f000 <_IO_file_jumps+0x130>
  40152c:	f9469400 	ldr	x0, [x0, #3368]
  401530:	940000a4 	bl	4017c0 <__lll_lock_wait_private>
  401534:	17ffff8d 	b	401368 <__run_exit_handlers+0x58>
  401538:	d503201f 	nop
  40153c:	d503201f 	nop

0000000000401540 <exit>:
  401540:	a9bf7bfd 	stp	x29, x30, [sp, #-16]!
  401544:	f0000461 	adrp	x1, 490000 <.got.plt+0x18>
  401548:	52800023 	mov	w3, #0x1                   	// #1
  40154c:	910003fd 	mov	x29, sp
  401550:	91010021 	add	x1, x1, #0x40
  401554:	2a0303e2 	mov	w2, w3
  401558:	97ffff6e 	bl	401310 <__run_exit_handlers>
  40155c:	d503201f 	nop

0000000000401560 <__libc_message>:
  401560:	a9b67bfd 	stp	x29, x30, [sp, #-160]!
  401564:	910003fd 	mov	x29, sp
  401568:	a90153f3 	stp	x19, x20, [sp, #16]
  40156c:	aa0003f3 	mov	x19, x0
  401570:	128006e0 	mov	w0, #0xffffffc8            	// #-56
  401574:	a9025bf5 	stp	x21, x22, [sp, #32]
  401578:	52800014 	mov	w20, #0x0                   	// #0
  40157c:	d2800015 	mov	x21, #0x0                   	// #0
  401580:	f9001bf7 	str	x23, [sp, #48]
  401584:	a9068ba1 	stp	x1, x2, [x29, #104]
  401588:	910183a1 	add	x1, x29, #0x60
  40158c:	910283a2 	add	x2, x29, #0xa0
  401590:	a90793a3 	stp	x3, x4, [x29, #120]
  401594:	a9089ba5 	stp	x5, x6, [x29, #136]
  401598:	f9004fa7 	str	x7, [x29, #152]
  40159c:	a9040ba2 	stp	x2, x2, [x29, #64]
  4015a0:	39400276 	ldrb	w22, [x19]
  4015a4:	f9002ba1 	str	x1, [x29, #80]
  4015a8:	290b7fa0 	stp	w0, wzr, [x29, #88]
  4015ac:	34000eb6 	cbz	w22, 401780 <__libc_message+0x220>
  4015b0:	2a1603e1 	mov	w1, w22
  4015b4:	aa1303e0 	mov	x0, x19
  4015b8:	14000006 	b	4015d0 <__libc_message+0x70>
  4015bc:	528004a1 	mov	w1, #0x25                  	// #37
  4015c0:	91000400 	add	x0, x0, #0x1
  4015c4:	9400191f 	bl	407a40 <__strchrnul>
  4015c8:	39400001 	ldrb	w1, [x0]
  4015cc:	340000c1 	cbz	w1, 4015e4 <__libc_message+0x84>
  4015d0:	7100943f 	cmp	w1, #0x25
  4015d4:	54ffff41 	b.ne	4015bc <__libc_message+0x5c>  // b.any
  4015d8:	39400401 	ldrb	w1, [x0, #1]
  4015dc:	7101cc3f 	cmp	w1, #0x73
  4015e0:	54fffee1 	b.ne	4015bc <__libc_message+0x5c>  // b.any
  4015e4:	710096df 	cmp	w22, #0x25
  4015e8:	540001c0 	b.eq	401620 <__libc_message+0xc0>  // b.none
  4015ec:	d10083ff 	sub	sp, sp, #0x20
  4015f0:	cb130006 	sub	x6, x0, x19
  4015f4:	910003e1 	mov	x1, sp
  4015f8:	aa1303f7 	mov	x23, x19
  4015fc:	aa0003f3 	mov	x19, x0
  401600:	11000680 	add	w0, w20, #0x1
  401604:	a9001837 	stp	x23, x6, [x1]
  401608:	f9000835 	str	x21, [x1, #16]
  40160c:	39400276 	ldrb	w22, [x19]
  401610:	34000336 	cbz	w22, 401674 <__libc_message+0x114>
  401614:	2a0003f4 	mov	w20, w0
  401618:	aa0103f5 	mov	x21, x1
  40161c:	17ffffe5 	b	4015b0 <__libc_message+0x50>
  401620:	39400661 	ldrb	w1, [x19, #1]
  401624:	7101cc3f 	cmp	w1, #0x73
  401628:	54fffe21 	b.ne	4015ec <__libc_message+0x8c>  // b.any
  40162c:	b9405ba1 	ldr	w1, [x29, #88]
  401630:	f94023a0 	ldr	x0, [x29, #64]
  401634:	37f80a81 	tbnz	w1, #31, 401784 <__libc_message+0x224>
  401638:	91003c01 	add	x1, x0, #0xf
  40163c:	927df021 	and	x1, x1, #0xfffffffffffffff8
  401640:	f90023a1 	str	x1, [x29, #64]
  401644:	f9400017 	ldr	x23, [x0]
  401648:	91000a73 	add	x19, x19, #0x2
  40164c:	aa1703e0 	mov	x0, x23
  401650:	97fffb0c 	bl	400280 <.plt+0x40>
  401654:	d10083ff 	sub	sp, sp, #0x20
  401658:	aa0003e6 	mov	x6, x0
  40165c:	910003e1 	mov	x1, sp
  401660:	11000680 	add	w0, w20, #0x1
  401664:	a9001837 	stp	x23, x6, [x1]
  401668:	f9000835 	str	x21, [x1, #16]
  40166c:	39400276 	ldrb	w22, [x19]
  401670:	35fffd36 	cbnz	w22, 401614 <__libc_message+0xb4>
  401674:	937c7c01 	sbfiz	x1, x0, #4, #32
  401678:	93407c02 	sxtw	x2, w0
  40167c:	cb2163ff 	sub	sp, sp, x1
  401680:	d1004023 	sub	x3, x1, #0x10
  401684:	910003f3 	mov	x19, sp
  401688:	aa0603e0 	mov	x0, x6
  40168c:	8b030264 	add	x4, x19, x3
  401690:	f8236a77 	str	x23, [x19, x3]
  401694:	f9000486 	str	x6, [x4, #8]
  401698:	34000214 	cbz	w20, 4016d8 <__libc_message+0x178>
  40169c:	51000685 	sub	w5, w20, #0x1
  4016a0:	d100c023 	sub	x3, x1, #0x30
  4016a4:	d1008021 	sub	x1, x1, #0x20
  4016a8:	cb255265 	sub	x5, x19, w5, uxtw #4
  4016ac:	8b010261 	add	x1, x19, x1
  4016b0:	8b0300a5 	add	x5, x5, x3
  4016b4:	d503201f 	nop
  4016b8:	a9400ea4 	ldp	x4, x3, [x21]
  4016bc:	f9400ab5 	ldr	x21, [x21, #16]
  4016c0:	a9000c24 	stp	x4, x3, [x1]
  4016c4:	d1004021 	sub	x1, x1, #0x10
  4016c8:	8b030000 	add	x0, x0, x3
  4016cc:	aa0003e6 	mov	x6, x0
  4016d0:	eb05003f 	cmp	x1, x5
  4016d4:	54ffff21 	b.ne	4016b8 <__libc_message+0x158>  // b.any
  4016d8:	aa1303e1 	mov	x1, x19
  4016dc:	d2800040 	mov	x0, #0x2                   	// #2
  4016e0:	d2800848 	mov	x8, #0x42                  	// #66
  4016e4:	d4000001 	svc	#0x0
  4016e8:	b140041f 	cmn	x0, #0x1, lsl #12
  4016ec:	ba448800 	ccmn	x0, #0x4, #0x0, hi	// hi = pmore
  4016f0:	54ffff40 	b.eq	4016d8 <__libc_message+0x178>  // b.none
  4016f4:	d0000461 	adrp	x1, 48f000 <_IO_file_jumps+0x130>
  4016f8:	f947d821 	ldr	x1, [x1, #4016]
  4016fc:	d2800005 	mov	x5, #0x0                   	// #0
  401700:	12800004 	mov	w4, #0xffffffff            	// #-1
  401704:	52800443 	mov	w3, #0x22                  	// #34
  401708:	52800062 	mov	w2, #0x3                   	// #3
  40170c:	d2800000 	mov	x0, #0x0                   	// #0
  401710:	f9400021 	ldr	x1, [x1]
  401714:	8b060026 	add	x6, x1, x6
  401718:	cb0103e1 	neg	x1, x1
  40171c:	8a0100d5 	and	x21, x6, x1
  401720:	aa1503e1 	mov	x1, x21
  401724:	940022ff 	bl	40a320 <__mmap64>
  401728:	aa0003f6 	mov	x22, x0
  40172c:	b100041f 	cmn	x0, #0x1
  401730:	54000280 	b.eq	401780 <__libc_message+0x220>  // b.none
  401734:	8b34d274 	add	x20, x19, w20, sxtw #4
  401738:	b8004415 	str	w21, [x0], #4
  40173c:	91004294 	add	x20, x20, #0x10
  401740:	a9400a61 	ldp	x1, x2, [x19]
  401744:	91004273 	add	x19, x19, #0x10
  401748:	97fffac2 	bl	400250 <.plt+0x10>
  40174c:	aa0003e1 	mov	x1, x0
  401750:	f85f8262 	ldur	x2, [x19, #-8]
  401754:	8b020000 	add	x0, x0, x2
  401758:	eb13029f 	cmp	x20, x19
  40175c:	54ffff21 	b.ne	401740 <__libc_message+0x1e0>  // b.any
  401760:	3822683f 	strb	wzr, [x1, x2]
  401764:	aa1603e0 	mov	x0, x22
  401768:	b0000481 	adrp	x1, 492000 <static_slotinfo+0x270>
  40176c:	91080021 	add	x1, x1, #0x200
  401770:	94011f08 	bl	449390 <__aarch64_swp8_acq>
  401774:	b4000060 	cbz	x0, 401780 <__libc_message+0x220>
  401778:	b9400001 	ldr	w1, [x0]
  40177c:	94002311 	bl	40a3c0 <__munmap>
  401780:	97fffad0 	bl	4002c0 <abort>
  401784:	11002022 	add	w2, w1, #0x8
  401788:	b9005ba2 	str	w2, [x29, #88]
  40178c:	7100005f 	cmp	w2, #0x0
  401790:	54fff54c 	b.gt	401638 <__libc_message+0xd8>
  401794:	f94027a0 	ldr	x0, [x29, #72]
  401798:	8b21c000 	add	x0, x0, w1, sxtw
  40179c:	17ffffaa 	b	401644 <__libc_message+0xe4>

00000000004017a0 <__libc_fatal>:
  4017a0:	a9bf7bfd 	stp	x29, x30, [sp, #-16]!
  4017a4:	d0000262 	adrp	x2, 44f000 <_Unwind_Find_FDE+0x430>
  4017a8:	aa0003e1 	mov	x1, x0
  4017ac:	910003fd 	mov	x29, sp
  4017b0:	91344040 	add	x0, x2, #0xd10
  4017b4:	97ffff6b 	bl	401560 <__libc_message>
  4017b8:	d503201f 	nop
  4017bc:	d503201f 	nop

00000000004017c0 <__lll_lock_wait_private>:
  4017c0:	a9be7bfd 	stp	x29, x30, [sp, #-32]!
  4017c4:	910003fd 	mov	x29, sp
  4017c8:	f9000bf3 	str	x19, [sp, #16]
  4017cc:	aa0003f3 	mov	x19, x0
  4017d0:	b9400000 	ldr	w0, [x0]
  4017d4:	7100081f 	cmp	w0, #0x2
  4017d8:	540000a0 	b.eq	4017ec <__lll_lock_wait_private+0x2c>  // b.none
  4017dc:	aa1303e1 	mov	x1, x19
  4017e0:	52800040 	mov	w0, #0x2                   	// #2
  4017e4:	94011ebb 	bl	4492d0 <__aarch64_swp4_acq>
  4017e8:	34000200 	cbz	w0, 401828 <__lll_lock_wait_private+0x68>
  4017ec:	aa1303e0 	mov	x0, x19
  4017f0:	d2801001 	mov	x1, #0x80                  	// #128
  4017f4:	d2800042 	mov	x2, #0x2                   	// #2
  4017f8:	d2800003 	mov	x3, #0x0                   	// #0
  4017fc:	d2800c48 	mov	x8, #0x62                  	// #98
  401800:	d4000001 	svc	#0x0
  401804:	b140041f 	cmn	x0, #0x1, lsl #12
  401808:	54fffea9 	b.ls	4017dc <__lll_lock_wait_private+0x1c>  // b.plast
  40180c:	31002c1f 	cmn	w0, #0xb
  401810:	54fffe60 	b.eq	4017dc <__lll_lock_wait_private+0x1c>  // b.none
  401814:	3100101f 	cmn	w0, #0x4
  401818:	54fffe20 	b.eq	4017dc <__lll_lock_wait_private+0x1c>  // b.none
  40181c:	d0000260 	adrp	x0, 44f000 <_Unwind_Find_FDE+0x430>
  401820:	91346000 	add	x0, x0, #0xd18
  401824:	97ffffdf 	bl	4017a0 <__libc_fatal>
  401828:	f9400bf3 	ldr	x19, [sp, #16]
  40182c:	a8c27bfd 	ldp	x29, x30, [sp], #32
  401830:	d65f03c0 	ret

0000000000401834 <__lll_lock_wait>:
  401834:	a9be7bfd 	stp	x29, x30, [sp, #-32]!
  401838:	910003fd 	mov	x29, sp
  40183c:	a90153f3 	stp	x19, x20, [sp, #16]
  401840:	aa0003f3 	mov	x19, x0
  401844:	2a0103f4 	mov	w20, w1
  401848:	b9400000 	ldr	w0, [x0]
  40184c:	7100081f 	cmp	w0, #0x2
  401850:	540000a0 	b.eq	401864 <__lll_lock_wait+0x30>  // b.none
  401854:	aa1303e1 	mov	x1, x19
  401858:	52800040 	mov	w0, #0x2                   	// #2
  40185c:	94011e9d 	bl	4492d0 <__aarch64_swp4_acq>
  401860:	34000220 	cbz	w0, 4018a4 <__lll_lock_wait+0x70>
  401864:	52190281 	eor	w1, w20, #0x80
  401868:	aa1303e0 	mov	x0, x19
  40186c:	d2800042 	mov	x2, #0x2                   	// #2
  401870:	d2800003 	mov	x3, #0x0                   	// #0
  401874:	93407c21 	sxtw	x1, w1
  401878:	d2800c48 	mov	x8, #0x62                  	// #98
  40187c:	d4000001 	svc	#0x0
  401880:	b140041f 	cmn	x0, #0x1, lsl #12
  401884:	54fffe89 	b.ls	401854 <__lll_lock_wait+0x20>  // b.plast
  401888:	31002c1f 	cmn	w0, #0xb
  40188c:	54fffe40 	b.eq	401854 <__lll_lock_wait+0x20>  // b.none
  401890:	3100101f 	cmn	w0, #0x4
  401894:	54fffe00 	b.eq	401854 <__lll_lock_wait+0x20>  // b.none
  401898:	d0000260 	adrp	x0, 44f000 <_Unwind_Find_FDE+0x430>
  40189c:	91346000 	add	x0, x0, #0xd18
  4018a0:	97ffffc0 	bl	4017a0 <__libc_fatal>
  4018a4:	a94153f3 	ldp	x19, x20, [sp, #16]
  4018a8:	a8c27bfd 	ldp	x29, x30, [sp], #32
  4018ac:	d65f03c0 	ret

00000000004018b0 <__lll_lock_wake_private>:
  4018b0:	d2801021 	mov	x1, #0x81                  	// #129
  4018b4:	d2800022 	mov	x2, #0x1                   	// #1
  4018b8:	d2800003 	mov	x3, #0x0                   	// #0
  4018bc:	d2800c48 	mov	x8, #0x62                  	// #98
  4018c0:	d4000001 	svc	#0x0
  4018c4:	d65f03c0 	ret
  4018c8:	d503201f 	nop
  4018cc:	d503201f 	nop

00000000004018d0 <__lll_lock_wake>:
  4018d0:	52801022 	mov	w2, #0x81                  	// #129
  4018d4:	4a020021 	eor	w1, w1, w2
  4018d8:	d2800003 	mov	x3, #0x0                   	// #0
  4018dc:	d2800022 	mov	x2, #0x1                   	// #1
  4018e0:	d2800c48 	mov	x8, #0x62                  	// #98
  4018e4:	93407c21 	sxtw	x1, w1
  4018e8:	d4000001 	svc	#0x0
  4018ec:	d65f03c0 	ret

00000000004018f0 <__nptl_deallocate_tsd>:
  4018f0:	a9b97bfd 	stp	x29, x30, [sp, #-112]!
  4018f4:	910003fd 	mov	x29, sp
  4018f8:	a90363f7 	stp	x23, x24, [sp, #48]
  4018fc:	d53bd058 	mrs	x24, tpidr_el0
  401900:	a9046bf9 	stp	x25, x26, [sp, #64]
  401904:	d11d0319 	sub	x25, x24, #0x740
  401908:	39504320 	ldrb	w0, [x25, #1040]
  40190c:	360007c0 	tbz	w0, #0, 401a04 <__nptl_deallocate_tsd+0x114>
  401910:	a90573fb 	stp	x27, x28, [sp, #80]
  401914:	d110c31c 	sub	x28, x24, #0x430
  401918:	d2800080 	mov	x0, #0x4                   	// #4
  40191c:	b000049b 	adrp	x27, 492000 <static_slotinfo+0x270>
  401920:	a90153f3 	stp	x19, x20, [sp, #16]
  401924:	a9025bf5 	stp	x21, x22, [sp, #32]
  401928:	f90037e0 	str	x0, [sp, #104]
  40192c:	aa1c03f6 	mov	x22, x28
  401930:	9118e377 	add	x23, x27, #0x638
  401934:	d2800415 	mov	x21, #0x20                  	// #32
  401938:	3910433f 	strb	wzr, [x25, #1040]
  40193c:	14000006 	b	401954 <__nptl_deallocate_tsd+0x64>
  401940:	910082b5 	add	x21, x21, #0x20
  401944:	910022d6 	add	x22, x22, #0x8
  401948:	910802f7 	add	x23, x23, #0x200
  40194c:	f11082bf 	cmp	x21, #0x420
  401950:	540002c0 	b.eq	4019a8 <__nptl_deallocate_tsd+0xb8>  // b.none
  401954:	f94002c3 	ldr	x3, [x22]
  401958:	b4ffff43 	cbz	x3, 401940 <__nptl_deallocate_tsd+0x50>
  40195c:	91002073 	add	x19, x3, #0x8
  401960:	9108207a 	add	x26, x3, #0x208
  401964:	aa1703f4 	mov	x20, x23
  401968:	14000005 	b	40197c <__nptl_deallocate_tsd+0x8c>
  40196c:	91004273 	add	x19, x19, #0x10
  401970:	91004294 	add	x20, x20, #0x10
  401974:	eb1a027f 	cmp	x19, x26
  401978:	54fffe40 	b.eq	401940 <__nptl_deallocate_tsd+0x50>  // b.none
  40197c:	f9400260 	ldr	x0, [x19]
  401980:	b4ffff60 	cbz	x0, 40196c <__nptl_deallocate_tsd+0x7c>
  401984:	f85f8281 	ldur	x1, [x20, #-8]
  401988:	f900027f 	str	xzr, [x19]
  40198c:	f85f8262 	ldur	x2, [x19, #-8]
  401990:	eb01005f 	cmp	x2, x1
  401994:	54fffec1 	b.ne	40196c <__nptl_deallocate_tsd+0x7c>  // b.any
  401998:	f9400281 	ldr	x1, [x20]
  40199c:	b4fffe81 	cbz	x1, 40196c <__nptl_deallocate_tsd+0x7c>
  4019a0:	d63f0020 	blr	x1
  4019a4:	17fffff2 	b	40196c <__nptl_deallocate_tsd+0x7c>
  4019a8:	39504320 	ldrb	w0, [x25, #1040]
  4019ac:	36000120 	tbz	w0, #0, 4019d0 <__nptl_deallocate_tsd+0xe0>
  4019b0:	f94037e0 	ldr	x0, [sp, #104]
  4019b4:	f1000400 	subs	x0, x0, #0x1
  4019b8:	f90037e0 	str	x0, [sp, #104]
  4019bc:	54fffb81 	b.ne	40192c <__nptl_deallocate_tsd+0x3c>  // b.any
  4019c0:	d118c300 	sub	x0, x24, #0x630
  4019c4:	d2804002 	mov	x2, #0x200                 	// #512
  4019c8:	52800001 	mov	w1, #0x0                   	// #0
  4019cc:	97fffa29 	bl	400270 <.plt+0x30>
  4019d0:	d110a313 	sub	x19, x24, #0x428
  4019d4:	d10cc318 	sub	x24, x24, #0x330
  4019d8:	f9400260 	ldr	x0, [x19]
  4019dc:	b4000060 	cbz	x0, 4019e8 <__nptl_deallocate_tsd+0xf8>
  4019e0:	94001228 	bl	406280 <__free>
  4019e4:	f900027f 	str	xzr, [x19]
  4019e8:	91002273 	add	x19, x19, #0x8
  4019ec:	eb18027f 	cmp	x19, x24
  4019f0:	54ffff41 	b.ne	4019d8 <__nptl_deallocate_tsd+0xe8>  // b.any
  4019f4:	a94153f3 	ldp	x19, x20, [sp, #16]
  4019f8:	3910433f 	strb	wzr, [x25, #1040]
  4019fc:	a9425bf5 	ldp	x21, x22, [sp, #32]
  401a00:	a94573fb 	ldp	x27, x28, [sp, #80]
  401a04:	a94363f7 	ldp	x23, x24, [sp, #48]
  401a08:	a9446bf9 	ldp	x25, x26, [sp, #64]
  401a0c:	a8c77bfd 	ldp	x29, x30, [sp], #112
  401a10:	d65f03c0 	ret
  401a14:	d503201f 	nop
  401a18:	d503201f 	nop
  401a1c:	d503201f 	nop

0000000000401a20 <__pthread_sigmask>:
  401a20:	aa0103e3 	mov	x3, x1
  401a24:	d2800001 	mov	x1, #0x0                   	// #0
  401a28:	b40000a3 	cbz	x3, 401a3c <__pthread_sigmask+0x1c>
  401a2c:	f9400064 	ldr	x4, [x3]
  401a30:	f261049f 	tst	x4, #0x180000000
  401a34:	54000121 	b.ne	401a58 <__pthread_sigmask+0x38>  // b.any
  401a38:	aa0303e1 	mov	x1, x3
  401a3c:	93407c00 	sxtw	x0, w0
  401a40:	d2800103 	mov	x3, #0x8                   	// #8
  401a44:	d28010e8 	mov	x8, #0x87                  	// #135
  401a48:	d4000001 	svc	#0x0
  401a4c:	3140041f 	cmn	w0, #0x1, lsl #12
  401a50:	5a8097e0 	csneg	w0, wzr, w0, ls	// ls = plast
  401a54:	d65f03c0 	ret
  401a58:	ad400460 	ldp	q0, q1, [x3]
  401a5c:	d10203ff 	sub	sp, sp, #0x80
  401a60:	910003e5 	mov	x5, sp
  401a64:	925ff484 	and	x4, x4, #0xfffffffe7fffffff
  401a68:	ad411464 	ldp	q4, q5, [x3, #32]
  401a6c:	aa0503e1 	mov	x1, x5
  401a70:	ad420c62 	ldp	q2, q3, [x3, #64]
  401a74:	ad0004a0 	stp	q0, q1, [x5]
  401a78:	93407c00 	sxtw	x0, w0
  401a7c:	ad430460 	ldp	q0, q1, [x3, #96]
  401a80:	d28010e8 	mov	x8, #0x87                  	// #135
  401a84:	d2800103 	mov	x3, #0x8                   	// #8
  401a88:	f90003e4 	str	x4, [sp]
  401a8c:	ad0114a4 	stp	q4, q5, [x5, #32]
  401a90:	ad020ca2 	stp	q2, q3, [x5, #64]
  401a94:	ad0304a0 	stp	q0, q1, [x5, #96]
  401a98:	d4000001 	svc	#0x0
  401a9c:	3140041f 	cmn	w0, #0x1, lsl #12
  401aa0:	5a8097e0 	csneg	w0, wzr, w0, ls	// ls = plast
  401aa4:	910203ff 	add	sp, sp, #0x80
  401aa8:	d65f03c0 	ret
  401aac:	d503201f 	nop

0000000000401ab0 <_dl_tunable_set_mmap_threshold>:
  401ab0:	f0000461 	adrp	x1, 490000 <.got.plt+0x18>
  401ab4:	91014021 	add	x1, x1, #0x50
  401ab8:	f9400000 	ldr	x0, [x0]
  401abc:	52800022 	mov	w2, #0x1                   	// #1
  401ac0:	f9000820 	str	x0, [x1, #16]
  401ac4:	b9004822 	str	w2, [x1, #72]
  401ac8:	d65f03c0 	ret
  401acc:	d503201f 	nop

0000000000401ad0 <_dl_tunable_set_mmaps_max>:
  401ad0:	f0000461 	adrp	x1, 490000 <.got.plt+0x18>
  401ad4:	91014021 	add	x1, x1, #0x50
  401ad8:	f9400000 	ldr	x0, [x0]
  401adc:	52800022 	mov	w2, #0x1                   	// #1
  401ae0:	b9004020 	str	w0, [x1, #64]
  401ae4:	b9004822 	str	w2, [x1, #72]
  401ae8:	d65f03c0 	ret
  401aec:	d503201f 	nop

0000000000401af0 <_dl_tunable_set_top_pad>:
  401af0:	f0000461 	adrp	x1, 490000 <.got.plt+0x18>
  401af4:	91014021 	add	x1, x1, #0x50
  401af8:	f9400000 	ldr	x0, [x0]
  401afc:	52800022 	mov	w2, #0x1                   	// #1
  401b00:	f9000420 	str	x0, [x1, #8]
  401b04:	b9004822 	str	w2, [x1, #72]
  401b08:	d65f03c0 	ret
  401b0c:	d503201f 	nop

0000000000401b10 <_dl_tunable_set_perturb_byte>:
  401b10:	b00004a1 	adrp	x1, 496000 <__pthread_keys+0x39d0>
  401b14:	f9400000 	ldr	x0, [x0]
  401b18:	b9063020 	str	w0, [x1, #1584]
  401b1c:	d65f03c0 	ret

0000000000401b20 <_dl_tunable_set_trim_threshold>:
  401b20:	f0000461 	adrp	x1, 490000 <.got.plt+0x18>
  401b24:	91014022 	add	x2, x1, #0x50
  401b28:	f9400000 	ldr	x0, [x0]
  401b2c:	52800023 	mov	w3, #0x1                   	// #1
  401b30:	f9002820 	str	x0, [x1, #80]
  401b34:	b9004843 	str	w3, [x2, #72]
  401b38:	d65f03c0 	ret
  401b3c:	d503201f 	nop

0000000000401b40 <_dl_tunable_set_arena_max>:
  401b40:	f0000461 	adrp	x1, 490000 <.got.plt+0x18>
  401b44:	f9400000 	ldr	x0, [x0]
  401b48:	f9003820 	str	x0, [x1, #112]
  401b4c:	d65f03c0 	ret

0000000000401b50 <_dl_tunable_set_arena_test>:
  401b50:	f0000461 	adrp	x1, 490000 <.got.plt+0x18>
  401b54:	f9400000 	ldr	x0, [x0]
  401b58:	f9003420 	str	x0, [x1, #104]
  401b5c:	d65f03c0 	ret

0000000000401b60 <_dl_tunable_set_tcache_max>:
  401b60:	f9400001 	ldr	x1, [x0]
  401b64:	f110203f 	cmp	x1, #0x408
  401b68:	54000049 	b.ls	401b70 <_dl_tunable_set_tcache_max+0x10>  // b.plast
  401b6c:	d65f03c0 	ret
  401b70:	91005c23 	add	x3, x1, #0x17
  401b74:	f0000462 	adrp	x2, 490000 <.got.plt+0x18>
  401b78:	927cec60 	and	x0, x3, #0xfffffffffffffff0
  401b7c:	91014042 	add	x2, x2, #0x50
  401b80:	d1004400 	sub	x0, x0, #0x11
  401b84:	f1007c7f 	cmp	x3, #0x1f
  401b88:	d344fc00 	lsr	x0, x0, #4
  401b8c:	91000400 	add	x0, x0, #0x1
  401b90:	9a9f8400 	csinc	x0, x0, xzr, hi	// hi = pmore
  401b94:	a9068440 	stp	x0, x1, [x2, #104]
  401b98:	d65f03c0 	ret
  401b9c:	d503201f 	nop

0000000000401ba0 <_dl_tunable_set_tcache_count>:
  401ba0:	f9400000 	ldr	x0, [x0]
  401ba4:	d29fffe1 	mov	x1, #0xffff                	// #65535
  401ba8:	eb01001f 	cmp	x0, x1
  401bac:	54000049 	b.ls	401bb4 <_dl_tunable_set_tcache_count+0x14>  // b.plast
  401bb0:	d65f03c0 	ret
  401bb4:	f0000461 	adrp	x1, 490000 <.got.plt+0x18>
  401bb8:	f9006420 	str	x0, [x1, #200]
  401bbc:	d65f03c0 	ret

0000000000401bc0 <_dl_tunable_set_tcache_unsorted_limit>:
  401bc0:	f0000461 	adrp	x1, 490000 <.got.plt+0x18>
  401bc4:	f9400000 	ldr	x0, [x0]
  401bc8:	f9006820 	str	x0, [x1, #208]
  401bcc:	d65f03c0 	ret

0000000000401bd0 <_dl_tunable_set_mxfast>:
  401bd0:	f9400000 	ldr	x0, [x0]
  401bd4:	f102801f 	cmp	x0, #0xa0
  401bd8:	54000049 	b.ls	401be0 <_dl_tunable_set_mxfast+0x10>  // b.plast
  401bdc:	d65f03c0 	ret
  401be0:	11002001 	add	w1, w0, #0x8
  401be4:	b00004a2 	adrp	x2, 496000 <__pthread_keys+0x39d0>
  401be8:	f1001c1f 	cmp	x0, #0x7
  401bec:	121c0c20 	and	w0, w1, #0xf0
  401bf0:	52800201 	mov	w1, #0x10                  	// #16
  401bf4:	1a818000 	csel	w0, w0, w1, hi	// hi = pmore
  401bf8:	3918d040 	strb	w0, [x2, #1588]
  401bfc:	d65f03c0 	ret

0000000000401c00 <malloc_printerr>:
  401c00:	a9bf7bfd 	stp	x29, x30, [sp, #-16]!
  401c04:	f0000282 	adrp	x2, 454000 <__PRETTY_FUNCTION__.0+0x250>
  401c08:	aa0003e1 	mov	x1, x0
  401c0c:	910003fd 	mov	x29, sp
  401c10:	91380040 	add	x0, x2, #0xe00
  401c14:	97fffe53 	bl	401560 <__libc_message>
  401c18:	d503201f 	nop
  401c1c:	d503201f 	nop

0000000000401c20 <int_mallinfo>:
  401c20:	91004009 	add	x9, x0, #0x10
  401c24:	91018006 	add	x6, x0, #0x60
  401c28:	52800007 	mov	w7, #0x0                   	// #0
  401c2c:	d2800008 	mov	x8, #0x0                   	// #0
  401c30:	f9400122 	ldr	x2, [x9]
  401c34:	b5000162 	cbnz	x2, 401c60 <int_mallinfo+0x40>
  401c38:	14000011 	b	401c7c <int_mallinfo+0x5c>
  401c3c:	a9409444 	ldp	x4, x5, [x2, #8]
  401c40:	91004043 	add	x3, x2, #0x10
  401c44:	110004e7 	add	w7, w7, #0x1
  401c48:	d34cfc63 	lsr	x3, x3, #12
  401c4c:	927df082 	and	x2, x4, #0xfffffffffffffff8
  401c50:	8b020108 	add	x8, x8, x2
  401c54:	ca050062 	eor	x2, x3, x5
  401c58:	eb05007f 	cmp	x3, x5
  401c5c:	54000100 	b.eq	401c7c <int_mallinfo+0x5c>  // b.none
  401c60:	f2400c5f 	tst	x2, #0xf
  401c64:	54fffec0 	b.eq	401c3c <int_mallinfo+0x1c>  // b.none
  401c68:	a9bf7bfd 	stp	x29, x30, [sp, #-16]!
  401c6c:	d0000260 	adrp	x0, 44f000 <_Unwind_Find_FDE+0x430>
  401c70:	91354000 	add	x0, x0, #0xd50
  401c74:	910003fd 	mov	x29, sp
  401c78:	97ffffe2 	bl	401c00 <malloc_printerr>
  401c7c:	91002129 	add	x9, x9, #0x8
  401c80:	eb0900df 	cmp	x6, x9
  401c84:	54fffd61 	b.ne	401c30 <int_mallinfo+0x10>  // b.any
  401c88:	f9403002 	ldr	x2, [x0, #96]
  401c8c:	91214009 	add	x9, x0, #0x850
  401c90:	52800024 	mov	w4, #0x1                   	// #1
  401c94:	f940044a 	ldr	x10, [x2, #8]
  401c98:	927df14a 	and	x10, x10, #0xfffffffffffffff8
  401c9c:	8b080145 	add	x5, x10, x8
  401ca0:	f9400cc2 	ldr	x2, [x6, #24]
  401ca4:	eb06005f 	cmp	x2, x6
  401ca8:	54000120 	b.eq	401ccc <int_mallinfo+0xac>  // b.none
  401cac:	d503201f 	nop
  401cb0:	f9400443 	ldr	x3, [x2, #8]
  401cb4:	11000484 	add	w4, w4, #0x1
  401cb8:	f9400c42 	ldr	x2, [x2, #24]
  401cbc:	927df063 	and	x3, x3, #0xfffffffffffffff8
  401cc0:	8b0300a5 	add	x5, x5, x3
  401cc4:	eb06005f 	cmp	x2, x6
  401cc8:	54ffff41 	b.ne	401cb0 <int_mallinfo+0x90>  // b.any
  401ccc:	910040c6 	add	x6, x6, #0x10
  401cd0:	eb06013f 	cmp	x9, x6
  401cd4:	54fffe61 	b.ne	401ca0 <int_mallinfo+0x80>  // b.any
  401cd8:	a940242b 	ldp	x11, x9, [x1]
  401cdc:	f0000463 	adrp	x3, 490000 <.got.plt+0x18>
  401ce0:	f9400826 	ldr	x6, [x1, #16]
  401ce4:	9103c063 	add	x3, x3, #0xf0
  401ce8:	f9401c22 	ldr	x2, [x1, #56]
  401cec:	f944440c 	ldr	x12, [x0, #2184]
  401cf0:	8b24c124 	add	x4, x9, w4, sxtw
  401cf4:	f9401829 	ldr	x9, [x1, #48]
  401cf8:	8b27c0c7 	add	x7, x6, w7, sxtw
  401cfc:	f9402026 	ldr	x6, [x1, #64]
  401d00:	8b020182 	add	x2, x12, x2
  401d04:	cb050042 	sub	x2, x2, x5
  401d08:	8b0c016b 	add	x11, x11, x12
  401d0c:	8b080128 	add	x8, x9, x8
  401d10:	8b0500c5 	add	x5, x6, x5
  401d14:	a900102b 	stp	x11, x4, [x1]
  401d18:	f9000827 	str	x7, [x1, #16]
  401d1c:	a9030828 	stp	x8, x2, [x1, #48]
  401d20:	f9002025 	str	x5, [x1, #64]
  401d24:	eb03001f 	cmp	x0, x3
  401d28:	54000040 	b.eq	401d30 <int_mallinfo+0x110>  // b.none
  401d2c:	d65f03c0 	ret
  401d30:	f0000460 	adrp	x0, 490000 <.got.plt+0x18>
  401d34:	91014000 	add	x0, x0, #0x50
  401d38:	f9402802 	ldr	x2, [x0, #80]
  401d3c:	f900242a 	str	x10, [x1, #72]
  401d40:	b9803c00 	ldrsw	x0, [x0, #60]
  401d44:	a9018820 	stp	x0, x2, [x1, #24]
  401d48:	f900143f 	str	xzr, [x1, #40]
  401d4c:	d65f03c0 	ret

0000000000401d50 <alloc_perturb>:
  401d50:	b00004a2 	adrp	x2, 496000 <__pthread_keys+0x39d0>
  401d54:	b9463043 	ldr	w3, [x2, #1584]
  401d58:	35000043 	cbnz	w3, 401d60 <alloc_perturb+0x10>
  401d5c:	d65f03c0 	ret
  401d60:	aa0103e2 	mov	x2, x1
  401d64:	52001c61 	eor	w1, w3, #0xff
  401d68:	17fff942 	b	400270 <.plt+0x30>
  401d6c:	d503201f 	nop

0000000000401d70 <munmap_chunk>:
  401d70:	a9bd7bfd 	stp	x29, x30, [sp, #-48]!
  401d74:	d0000461 	adrp	x1, 48f000 <_IO_file_jumps+0x130>
  401d78:	f947d821 	ldr	x1, [x1, #4016]
  401d7c:	910003fd 	mov	x29, sp
  401d80:	f9400402 	ldr	x2, [x0, #8]
  401d84:	a90153f3 	stp	x19, x20, [sp, #16]
  401d88:	f9400021 	ldr	x1, [x1]
  401d8c:	f90013f5 	str	x21, [sp, #32]
  401d90:	360803e2 	tbz	w2, #1, 401e0c <munmap_chunk+0x9c>
  401d94:	f9400014 	ldr	x20, [x0]
  401d98:	927df043 	and	x3, x2, #0xfffffffffffffff8
  401d9c:	d1000421 	sub	x1, x1, #0x1
  401da0:	91004002 	add	x2, x0, #0x10
  401da4:	8a010042 	and	x2, x2, x1
  401da8:	cb140013 	sub	x19, x0, x20
  401dac:	8b030294 	add	x20, x20, x3
  401db0:	d1000443 	sub	x3, x2, #0x1
  401db4:	aa140260 	orr	x0, x19, x20
  401db8:	8a020062 	and	x2, x3, x2
  401dbc:	8a010000 	and	x0, x0, x1
  401dc0:	aa020000 	orr	x0, x0, x2
  401dc4:	b50001e0 	cbnz	x0, 401e00 <munmap_chunk+0x90>
  401dc8:	f0000475 	adrp	x21, 490000 <.got.plt+0x18>
  401dcc:	910142b5 	add	x21, x21, #0x50
  401dd0:	9100f2a1 	add	x1, x21, #0x3c
  401dd4:	12800000 	mov	w0, #0xffffffff            	// #-1
  401dd8:	94011d1a 	bl	449240 <__aarch64_ldadd4_relax>
  401ddc:	910142a1 	add	x1, x21, #0x50
  401de0:	cb1403e0 	neg	x0, x20
  401de4:	94011d2f 	bl	4492a0 <__aarch64_ldadd8_relax>
  401de8:	f94013f5 	ldr	x21, [sp, #32]
  401dec:	aa1403e1 	mov	x1, x20
  401df0:	aa1303e0 	mov	x0, x19
  401df4:	a94153f3 	ldp	x19, x20, [sp, #16]
  401df8:	a8c37bfd 	ldp	x29, x30, [sp], #48
  401dfc:	14002171 	b	40a3c0 <__munmap>
  401e00:	d0000260 	adrp	x0, 44f000 <_Unwind_Find_FDE+0x430>
  401e04:	9136c000 	add	x0, x0, #0xdb0
  401e08:	97ffff7e 	bl	401c00 <malloc_printerr>
  401e0c:	90000283 	adrp	x3, 451000 <__PRETTY_FUNCTION__.1+0x1308>
  401e10:	d0000261 	adrp	x1, 44f000 <_Unwind_Find_FDE+0x430>
  401e14:	d0000260 	adrp	x0, 44f000 <_Unwind_Find_FDE+0x430>
  401e18:	91024063 	add	x3, x3, #0x90
  401e1c:	91362021 	add	x1, x1, #0xd88
  401e20:	91366000 	add	x0, x0, #0xd98
  401e24:	528179e2 	mov	w2, #0xbcf                 	// #3023
  401e28:	94002b02 	bl	40ca30 <__libc_assert_fail>
  401e2c:	d503201f 	nop

0000000000401e30 <_dl_tunable_set_hugetlb>:
  401e30:	f9400000 	ldr	x0, [x0]
  401e34:	f100041f 	cmp	x0, #0x1
  401e38:	54000140 	b.eq	401e60 <_dl_tunable_set_hugetlb+0x30>  // b.none
  401e3c:	54000109 	b.ls	401e5c <_dl_tunable_set_hugetlb+0x2c>  // b.plast
  401e40:	f100081f 	cmp	x0, #0x2
  401e44:	f0000461 	adrp	x1, 490000 <.got.plt+0x18>
  401e48:	91014021 	add	x1, x1, #0x50
  401e4c:	9a9f1000 	csel	x0, x0, xzr, ne	// ne = any
  401e50:	9100e022 	add	x2, x1, #0x38
  401e54:	9100c021 	add	x1, x1, #0x30
  401e58:	14002223 	b	40a6e4 <__malloc_hugepage_config>
  401e5c:	d65f03c0 	ret
  401e60:	a9bf7bfd 	stp	x29, x30, [sp, #-16]!
  401e64:	910003fd 	mov	x29, sp
  401e68:	940021e7 	bl	40a604 <__malloc_thp_mode>
  401e6c:	7100041f 	cmp	w0, #0x1
  401e70:	54000060 	b.eq	401e7c <_dl_tunable_set_hugetlb+0x4c>  // b.none
  401e74:	a8c17bfd 	ldp	x29, x30, [sp], #16
  401e78:	d65f03c0 	ret
  401e7c:	940021b9 	bl	40a560 <__malloc_default_thp_pagesize>
  401e80:	f0000461 	adrp	x1, 490000 <.got.plt+0x18>
  401e84:	f9003c20 	str	x0, [x1, #120]
  401e88:	17fffffb 	b	401e74 <_dl_tunable_set_hugetlb+0x44>
  401e8c:	d503201f 	nop

0000000000401e90 <detach_arena.part.0>:
  401e90:	a9bf7bfd 	stp	x29, x30, [sp, #-16]!
  401e94:	90000283 	adrp	x3, 451000 <__PRETTY_FUNCTION__.1+0x1308>
  401e98:	d0000261 	adrp	x1, 44f000 <_Unwind_Find_FDE+0x430>
  401e9c:	910003fd 	mov	x29, sp
  401ea0:	d0000260 	adrp	x0, 44f000 <_Unwind_Find_FDE+0x430>
  401ea4:	91046063 	add	x3, x3, #0x118
  401ea8:	91374021 	add	x1, x1, #0xdd0
  401eac:	91376000 	add	x0, x0, #0xdd8
  401eb0:	52804c42 	mov	w2, #0x262                 	// #610
  401eb4:	94002adf 	bl	40ca30 <__libc_assert_fail>
  401eb8:	d503201f 	nop
  401ebc:	d503201f 	nop

0000000000401ec0 <__malloc_info.part.0>:
  401ec0:	d282420c 	mov	x12, #0x1210                	// #4624
  401ec4:	cb2c63ff 	sub	sp, sp, x12
  401ec8:	d2800009 	mov	x9, #0x0                   	// #0
  401ecc:	d280000f 	mov	x15, #0x0                   	// #0
  401ed0:	d2800010 	mov	x16, #0x0                   	// #0
  401ed4:	d2800011 	mov	x17, #0x0                   	// #0
  401ed8:	a9027bfd 	stp	x29, x30, [sp, #32]
  401edc:	910083fd 	add	x29, sp, #0x20
  401ee0:	d2800003 	mov	x3, #0x0                   	// #0
  401ee4:	52800002 	mov	w2, #0x0                   	// #0
  401ee8:	a90353f3 	stp	x19, x20, [sp, #48]
  401eec:	d0000274 	adrp	x20, 44f000 <_Unwind_Find_FDE+0x430>
  401ef0:	aa0003f3 	mov	x19, x0
  401ef4:	a9045bf5 	stp	x21, x22, [sp, #64]
  401ef8:	f0000476 	adrp	x22, 490000 <.got.plt+0x18>
  401efc:	91380280 	add	x0, x20, #0xe00
  401f00:	a90773fb 	stp	x27, x28, [sp, #112]
  401f04:	9103c2db 	add	x27, x22, #0xf0
  401f08:	9103c3f5 	add	x21, sp, #0xf0
  401f0c:	aa1b03f4 	mov	x20, x27
  401f10:	a90563f7 	stp	x23, x24, [sp, #80]
  401f14:	a9066bf9 	stp	x25, x26, [sp, #96]
  401f18:	a9087fe0 	stp	x0, xzr, [sp, #128]
  401f1c:	a9097fff 	stp	xzr, xzr, [sp, #144]
  401f20:	a90a47e3 	stp	x3, x17, [sp, #160]
  401f24:	a90b3ff0 	stp	x16, x15, [sp, #176]
  401f28:	f90063e9 	str	x9, [sp, #192]
  401f2c:	f94043e1 	ldr	x1, [sp, #128]
  401f30:	11000440 	add	w0, w2, #0x1
  401f34:	b900cfe0 	str	w0, [sp, #204]
  401f38:	aa1303e0 	mov	x0, x19
  401f3c:	94002f19 	bl	40dba0 <__fprintf>
  401f40:	aa1403e2 	mov	x2, x20
  401f44:	52800021 	mov	w1, #0x1                   	// #1
  401f48:	52800000 	mov	w0, #0x0                   	// #0
  401f4c:	94011c71 	bl	449110 <__aarch64_cas4_acq>
  401f50:	350019a0 	cbnz	w0, 402284 <__malloc_info.part.0+0x3c4>
  401f54:	f9403280 	ldr	x0, [x20, #96]
  401f58:	91004288 	add	x8, x20, #0x10
  401f5c:	aa1503fc 	mov	x28, x21
  401f60:	9101828d 	add	x13, x20, #0x60
  401f64:	aa1503e5 	mov	x5, x21
  401f68:	d280000a 	mov	x10, #0x0                   	// #0
  401f6c:	f9400407 	ldr	x7, [x0, #8]
  401f70:	d280000b 	mov	x11, #0x0                   	// #0
  401f74:	f9400106 	ldr	x6, [x8]
  401f78:	b5001086 	cbnz	x6, 402188 <__malloc_info.part.0+0x2c8>
  401f7c:	d2800004 	mov	x4, #0x0                   	// #0
  401f80:	a9007cbf 	stp	xzr, xzr, [x5]
  401f84:	f9000cbf 	str	xzr, [x5, #24]
  401f88:	f94004a1 	ldr	x1, [x5, #8]
  401f8c:	91002108 	add	x8, x8, #0x8
  401f90:	910080a5 	add	x5, x5, #0x20
  401f94:	9b047c21 	mul	x1, x1, x4
  401f98:	f81f00a1 	stur	x1, [x5, #-16]
  401f9c:	eb0801bf 	cmp	x13, x8
  401fa0:	54fffea1 	b.ne	401f74 <__malloc_info.part.0+0xb4>  // b.any
  401fa4:	b00002a1 	adrp	x1, 456000 <__PRETTY_FUNCTION__.0+0x90>
  401fa8:	927df0e7 	and	x7, x7, #0xfffffffffffffff8
  401fac:	4f000400 	movi	v0.4s, #0x0
  401fb0:	9108c3e5 	add	x5, sp, #0x230
  401fb4:	3dc07c21 	ldr	q1, [x1, #496]
  401fb8:	d2822401 	mov	x1, #0x1120                	// #4384
  401fbc:	8b0102af 	add	x15, x21, x1
  401fc0:	d2800028 	mov	x8, #0x1                   	// #1
  401fc4:	d503201f 	nop
  401fc8:	f94009a2 	ldr	x2, [x13, #16]
  401fcc:	ad0000a1 	stp	q1, q0, [x5]
  401fd0:	b50010c2 	cbnz	x2, 4021e8 <__malloc_info.part.0+0x328>
  401fd4:	f90000bf 	str	xzr, [x5]
  401fd8:	f94008a1 	ldr	x1, [x5, #16]
  401fdc:	910080a5 	add	x5, x5, #0x20
  401fe0:	910041ad 	add	x13, x13, #0x10
  401fe4:	8b0100e7 	add	x7, x7, x1
  401fe8:	eb0501ff 	cmp	x15, x5
  401fec:	54fffee1 	b.ne	401fc8 <__malloc_info.part.0+0x108>  // b.any
  401ff0:	9103c2c1 	add	x1, x22, #0xf0
  401ff4:	eb01029f 	cmp	x20, x1
  401ff8:	54001221 	b.ne	40223c <__malloc_info.part.0+0x37c>  // b.any
  401ffc:	d2800019 	mov	x25, #0x0                   	// #0
  402000:	d2800017 	mov	x23, #0x0                   	// #0
  402004:	d2800018 	mov	x24, #0x0                   	// #0
  402008:	aa1403e1 	mov	x1, x20
  40200c:	52800000 	mov	w0, #0x0                   	// #0
  402010:	a90d2be7 	stp	x7, x10, [sp, #208]
  402014:	a90e23eb 	stp	x11, x8, [sp, #224]
  402018:	94011cea 	bl	4493c0 <__aarch64_swp4_rel>
  40201c:	7100041f 	cmp	w0, #0x1
  402020:	a94d2be7 	ldp	x7, x10, [sp, #208]
  402024:	a94e23eb 	ldp	x11, x8, [sp, #224]
  402028:	5400168c 	b.gt	4022f8 <__malloc_info.part.0+0x438>
  40202c:	f94047e0 	ldr	x0, [sp, #136]
  402030:	d280001a 	mov	x26, #0x0                   	// #0
  402034:	b000027b 	adrp	x27, 44f000 <_Unwind_Find_FDE+0x430>
  402038:	9139437b 	add	x27, x27, #0xe50
  40203c:	8b0a0000 	add	x0, x0, x10
  402040:	f90047e0 	str	x0, [sp, #136]
  402044:	f94053e0 	ldr	x0, [sp, #160]
  402048:	a90d1ff4 	stp	x20, x7, [sp, #208]
  40204c:	aa1a03f4 	mov	x20, x26
  402050:	8b0b0000 	add	x0, x0, x11
  402054:	f90053e0 	str	x0, [sp, #160]
  402058:	f9404be0 	ldr	x0, [sp, #144]
  40205c:	aa0b03fa 	mov	x26, x11
  402060:	a90e57ea 	stp	x10, x21, [sp, #224]
  402064:	aa1c03f5 	mov	x21, x28
  402068:	8b080000 	add	x0, x0, x8
  40206c:	f9004be0 	str	x0, [sp, #144]
  402070:	aa0803fc 	mov	x28, x8
  402074:	f9404fe0 	ldr	x0, [sp, #152]
  402078:	8b070000 	add	x0, x0, x7
  40207c:	f9004fe0 	str	x0, [sp, #152]
  402080:	14000005 	b	402094 <__malloc_info.part.0+0x1d4>
  402084:	91000694 	add	x20, x20, #0x1
  402088:	910082b5 	add	x21, x21, #0x20
  40208c:	f102269f 	cmp	x20, #0x89
  402090:	540001c0 	b.eq	4020c8 <__malloc_info.part.0+0x208>  // b.none
  402094:	f9400ea5 	ldr	x5, [x21, #24]
  402098:	f10000bf 	cmp	x5, #0x0
  40209c:	fa4a1a84 	ccmp	x20, #0xa, #0x4, ne	// ne = any
  4020a0:	54ffff20 	b.eq	402084 <__malloc_info.part.0+0x1c4>  // b.none
  4020a4:	a9400ea2 	ldp	x2, x3, [x21]
  4020a8:	aa1b03e1 	mov	x1, x27
  4020ac:	f9400aa4 	ldr	x4, [x21, #16]
  4020b0:	aa1303e0 	mov	x0, x19
  4020b4:	91000694 	add	x20, x20, #0x1
  4020b8:	910082b5 	add	x21, x21, #0x20
  4020bc:	94002eb9 	bl	40dba0 <__fprintf>
  4020c0:	f102269f 	cmp	x20, #0x89
  4020c4:	54fffe81 	b.ne	402094 <__malloc_info.part.0+0x1d4>  // b.any
  4020c8:	f94127e5 	ldr	x5, [sp, #584]
  4020cc:	aa1a03eb 	mov	x11, x26
  4020d0:	a94d1ff4 	ldp	x20, x7, [sp, #208]
  4020d4:	aa1c03e8 	mov	x8, x28
  4020d8:	a94e57ea 	ldp	x10, x21, [sp, #224]
  4020dc:	b5000da5 	cbnz	x5, 402290 <__malloc_info.part.0+0x3d0>
  4020e0:	f94057e0 	ldr	x0, [sp, #168]
  4020e4:	aa0703e5 	mov	x5, x7
  4020e8:	f9444686 	ldr	x6, [x20, #2184]
  4020ec:	aa0803e4 	mov	x4, x8
  4020f0:	f9444a87 	ldr	x7, [x20, #2192]
  4020f4:	8b060000 	add	x0, x0, x6
  4020f8:	f90057e0 	str	x0, [sp, #168]
  4020fc:	aa0b03e3 	mov	x3, x11
  402100:	f9405be0 	ldr	x0, [sp, #176]
  402104:	aa0a03e2 	mov	x2, x10
  402108:	b0000261 	adrp	x1, 44f000 <_Unwind_Find_FDE+0x430>
  40210c:	913b2021 	add	x1, x1, #0xec8
  402110:	8b070000 	add	x0, x0, x7
  402114:	f9005be0 	str	x0, [sp, #176]
  402118:	aa1303e0 	mov	x0, x19
  40211c:	94002ea1 	bl	40dba0 <__fprintf>
  402120:	9103c2c0 	add	x0, x22, #0xf0
  402124:	eb00029f 	cmp	x20, x0
  402128:	54000cc0 	b.eq	4022c0 <__malloc_info.part.0+0x400>  // b.none
  40212c:	aa1903e4 	mov	x4, x25
  402130:	aa1703e3 	mov	x3, x23
  402134:	aa1803e2 	mov	x2, x24
  402138:	aa1303e0 	mov	x0, x19
  40213c:	b0000261 	adrp	x1, 44f000 <_Unwind_Find_FDE+0x430>
  402140:	913dc021 	add	x1, x1, #0xf70
  402144:	94002e97 	bl	40dba0 <__fprintf>
  402148:	f9405fe0 	ldr	x0, [sp, #184]
  40214c:	8b180000 	add	x0, x0, x24
  402150:	f9005fe0 	str	x0, [sp, #184]
  402154:	f94063e0 	ldr	x0, [sp, #192]
  402158:	8b170000 	add	x0, x0, x23
  40215c:	f90063e0 	str	x0, [sp, #192]
  402160:	aa1303e1 	mov	x1, x19
  402164:	d0000260 	adrp	x0, 450000 <__PRETTY_FUNCTION__.1+0x308>
  402168:	9100a000 	add	x0, x0, #0x28
  40216c:	94003ee5 	bl	411d00 <_IO_fputs>
  402170:	f9443a94 	ldr	x20, [x20, #2160]
  402174:	9103c2c0 	add	x0, x22, #0xf0
  402178:	eb00029f 	cmp	x20, x0
  40217c:	54000c80 	b.eq	40230c <__malloc_info.part.0+0x44c>  // b.none
  402180:	b940cfe2 	ldr	w2, [sp, #204]
  402184:	17ffff6a 	b	401f2c <__malloc_info.part.0+0x6c>
  402188:	f2400cdf 	tst	x6, #0xf
  40218c:	54000181 	b.ne	4021bc <__malloc_info.part.0+0x2fc>  // b.any
  402190:	aa0603e1 	mov	x1, x6
  402194:	d2800004 	mov	x4, #0x0                   	// #0
  402198:	f9400822 	ldr	x2, [x1, #16]
  40219c:	91004021 	add	x1, x1, #0x10
  4021a0:	91000484 	add	x4, x4, #0x1
  4021a4:	d34cfc23 	lsr	x3, x1, #12
  4021a8:	ca020061 	eor	x1, x3, x2
  4021ac:	eb02007f 	cmp	x3, x2
  4021b0:	540000c0 	b.eq	4021c8 <__malloc_info.part.0+0x308>  // b.none
  4021b4:	f2400c3f 	tst	x1, #0xf
  4021b8:	54ffff00 	b.eq	402198 <__malloc_info.part.0+0x2d8>  // b.none
  4021bc:	b0000260 	adrp	x0, 44f000 <_Unwind_Find_FDE+0x430>
  4021c0:	91386000 	add	x0, x0, #0xe18
  4021c4:	97fffe8f 	bl	401c00 <malloc_printerr>
  4021c8:	f94004c1 	ldr	x1, [x6, #8]
  4021cc:	8b04014a 	add	x10, x10, x4
  4021d0:	f9000ca4 	str	x4, [x5, #24]
  4021d4:	927df021 	and	x1, x1, #0xfffffffffffffff8
  4021d8:	d1003c22 	sub	x2, x1, #0xf
  4021dc:	a90004a2 	stp	x2, x1, [x5]
  4021e0:	9b012c8b 	madd	x11, x4, x1, x11
  4021e4:	17ffff69 	b	401f88 <__malloc_info.part.0+0xc8>
  4021e8:	eb0d005f 	cmp	x2, x13
  4021ec:	54ffef40 	b.eq	401fd4 <__malloc_info.part.0+0x114>  // b.none
  4021f0:	d2800026 	mov	x6, #0x1                   	// #1
  4021f4:	d2800003 	mov	x3, #0x0                   	// #0
  4021f8:	92800004 	mov	x4, #0xffffffffffffffff    	// #-1
  4021fc:	d2800009 	mov	x9, #0x0                   	// #0
  402200:	a9408841 	ldp	x1, x2, [x2, #8]
  402204:	aa0603ec 	mov	x12, x6
  402208:	910004c6 	add	x6, x6, #0x1
  40220c:	eb01009f 	cmp	x4, x1
  402210:	8b010129 	add	x9, x9, x1
  402214:	9a819084 	csel	x4, x4, x1, ls	// ls = plast
  402218:	eb01007f 	cmp	x3, x1
  40221c:	9a812063 	csel	x3, x3, x1, cs	// cs = hs, nlast
  402220:	eb0d005f 	cmp	x2, x13
  402224:	54fffee1 	b.ne	402200 <__malloc_info.part.0+0x340>  // b.any
  402228:	a9000ca4 	stp	x4, x3, [x5]
  40222c:	a90130a9 	stp	x9, x12, [x5, #16]
  402230:	b4ffed2c 	cbz	x12, 401fd4 <__malloc_info.part.0+0x114>
  402234:	8b0c0108 	add	x8, x8, x12
  402238:	17ffff68 	b	401fd8 <__malloc_info.part.0+0x118>
  40223c:	d0000461 	adrp	x1, 490000 <.got.plt+0x18>
  402240:	b26697e2 	mov	x2, #0xfffffffffc000000    	// #-67108864
  402244:	d2800019 	mov	x25, #0x0                   	// #0
  402248:	d2800017 	mov	x23, #0x0                   	// #0
  40224c:	f9404021 	ldr	x1, [x1, #128]
  402250:	d2800018 	mov	x24, #0x0                   	// #0
  402254:	f100003f 	cmp	x1, #0x0
  402258:	cb010be1 	neg	x1, x1, lsl #2
  40225c:	9a821021 	csel	x1, x1, x2, ne	// ne = any
  402260:	8a010000 	and	x0, x0, x1
  402264:	d503201f 	nop
  402268:	a9410402 	ldp	x2, x1, [x0, #16]
  40226c:	91000739 	add	x25, x25, #0x1
  402270:	f9400400 	ldr	x0, [x0, #8]
  402274:	8b020318 	add	x24, x24, x2
  402278:	8b0102f7 	add	x23, x23, x1
  40227c:	b5ffff60 	cbnz	x0, 402268 <__malloc_info.part.0+0x3a8>
  402280:	17ffff62 	b	402008 <__malloc_info.part.0+0x148>
  402284:	aa1403e0 	mov	x0, x20
  402288:	97fffd4e 	bl	4017c0 <__lll_lock_wait_private>
  40228c:	17ffff32 	b	401f54 <__malloc_info.part.0+0x94>
  402290:	f9411be2 	ldr	x2, [sp, #560]
  402294:	aa1303e0 	mov	x0, x19
  402298:	f9411fe3 	ldr	x3, [sp, #568]
  40229c:	b0000261 	adrp	x1, 44f000 <_Unwind_Find_FDE+0x430>
  4022a0:	f94123e4 	ldr	x4, [sp, #576]
  4022a4:	913a2021 	add	x1, x1, #0xe88
  4022a8:	a90d2be7 	stp	x7, x10, [sp, #208]
  4022ac:	a90e73fa 	stp	x26, x28, [sp, #224]
  4022b0:	94002e3c 	bl	40dba0 <__fprintf>
  4022b4:	a94d2be7 	ldp	x7, x10, [sp, #208]
  4022b8:	a94e23eb 	ldp	x11, x8, [sp, #224]
  4022bc:	17ffff89 	b	4020e0 <__malloc_info.part.0+0x220>
  4022c0:	f9444683 	ldr	x3, [x20, #2184]
  4022c4:	aa1303e0 	mov	x0, x19
  4022c8:	b0000261 	adrp	x1, 44f000 <_Unwind_Find_FDE+0x430>
  4022cc:	913f8021 	add	x1, x1, #0xfe0
  4022d0:	aa0303e2 	mov	x2, x3
  4022d4:	94002e33 	bl	40dba0 <__fprintf>
  4022d8:	f9405fe1 	ldr	x1, [sp, #184]
  4022dc:	f9444680 	ldr	x0, [x20, #2184]
  4022e0:	8b000021 	add	x1, x1, x0
  4022e4:	f9005fe1 	str	x1, [sp, #184]
  4022e8:	f94063e1 	ldr	x1, [sp, #192]
  4022ec:	8b000020 	add	x0, x1, x0
  4022f0:	f90063e0 	str	x0, [sp, #192]
  4022f4:	17ffff9b 	b	402160 <__malloc_info.part.0+0x2a0>
  4022f8:	aa1403e0 	mov	x0, x20
  4022fc:	97fffd6d 	bl	4018b0 <__lll_lock_wake_private>
  402300:	a94d2be7 	ldp	x7, x10, [sp, #208]
  402304:	a94e23eb 	ldp	x11, x8, [sp, #224]
  402308:	17ffff49 	b	40202c <__malloc_info.part.0+0x16c>
  40230c:	a94ac3f1 	ldp	x17, x16, [sp, #168]
  402310:	d0000460 	adrp	x0, 490000 <.got.plt+0x18>
  402314:	91014000 	add	x0, x0, #0x50
  402318:	a90043f1 	stp	x17, x16, [sp]
  40231c:	d0000261 	adrp	x1, 450000 <__PRETTY_FUNCTION__.1+0x308>
  402320:	a94893e2 	ldp	x2, x4, [sp, #136]
  402324:	9100e021 	add	x1, x1, #0x38
  402328:	a9498fe5 	ldp	x5, x3, [sp, #152]
  40232c:	a94ba7ef 	ldp	x15, x9, [sp, #184]
  402330:	f9402807 	ldr	x7, [x0, #80]
  402334:	b9403c06 	ldr	w6, [x0, #60]
  402338:	aa1303e0 	mov	x0, x19
  40233c:	a90127ef 	stp	x15, x9, [sp, #16]
  402340:	94002e18 	bl	40dba0 <__fprintf>
  402344:	a9427bfd 	ldp	x29, x30, [sp, #32]
  402348:	52800000 	mov	w0, #0x0                   	// #0
  40234c:	a94353f3 	ldp	x19, x20, [sp, #48]
  402350:	d282420c 	mov	x12, #0x1210                	// #4624
  402354:	a9445bf5 	ldp	x21, x22, [sp, #64]
  402358:	a94563f7 	ldp	x23, x24, [sp, #80]
  40235c:	a9466bf9 	ldp	x25, x26, [sp, #96]
  402360:	a94773fb 	ldp	x27, x28, [sp, #112]
  402364:	8b2c63ff 	add	sp, sp, x12
  402368:	d65f03c0 	ret
  40236c:	d503201f 	nop

0000000000402370 <unlink_chunk.isra.0>:
  402370:	a9bf7bfd 	stp	x29, x30, [sp, #-16]!
  402374:	910003fd 	mov	x29, sp
  402378:	f9400403 	ldr	x3, [x0, #8]
  40237c:	927df061 	and	x1, x3, #0xfffffffffffffff8
  402380:	f8616802 	ldr	x2, [x0, x1]
  402384:	eb02003f 	cmp	x1, x2
  402388:	540004e1 	b.ne	402424 <unlink_chunk.isra.0+0xb4>  // b.any
  40238c:	a9410801 	ldp	x1, x2, [x0, #16]
  402390:	f9400c24 	ldr	x4, [x1, #24]
  402394:	eb04001f 	cmp	x0, x4
  402398:	540003c1 	b.ne	402410 <unlink_chunk.isra.0+0xa0>  // b.any
  40239c:	f9400844 	ldr	x4, [x2, #16]
  4023a0:	eb04001f 	cmp	x0, x4
  4023a4:	54000361 	b.ne	402410 <unlink_chunk.isra.0+0xa0>  // b.any
  4023a8:	f9000c22 	str	x2, [x1, #24]
  4023ac:	f9000841 	str	x1, [x2, #16]
  4023b0:	f10ffc7f 	cmp	x3, #0x3ff
  4023b4:	540001c9 	b.ls	4023ec <unlink_chunk.isra.0+0x7c>  // b.plast
  4023b8:	f9401002 	ldr	x2, [x0, #32]
  4023bc:	b4000182 	cbz	x2, 4023ec <unlink_chunk.isra.0+0x7c>
  4023c0:	f9401443 	ldr	x3, [x2, #40]
  4023c4:	eb03001f 	cmp	x0, x3
  4023c8:	54000341 	b.ne	402430 <unlink_chunk.isra.0+0xc0>  // b.any
  4023cc:	f9401403 	ldr	x3, [x0, #40]
  4023d0:	f9401064 	ldr	x4, [x3, #32]
  4023d4:	eb04001f 	cmp	x0, x4
  4023d8:	540002c1 	b.ne	402430 <unlink_chunk.isra.0+0xc0>  // b.any
  4023dc:	f9401024 	ldr	x4, [x1, #32]
  4023e0:	b40000a4 	cbz	x4, 4023f4 <unlink_chunk.isra.0+0x84>
  4023e4:	f9001443 	str	x3, [x2, #40]
  4023e8:	f9001062 	str	x2, [x3, #32]
  4023ec:	a8c17bfd 	ldp	x29, x30, [sp], #16
  4023f0:	d65f03c0 	ret
  4023f4:	eb02001f 	cmp	x0, x2
  4023f8:	54000120 	b.eq	40241c <unlink_chunk.isra.0+0xac>  // b.none
  4023fc:	a9020c22 	stp	x2, x3, [x1, #32]
  402400:	f9001441 	str	x1, [x2, #40]
  402404:	f9401400 	ldr	x0, [x0, #40]
  402408:	f9001001 	str	x1, [x0, #32]
  40240c:	17fffff8 	b	4023ec <unlink_chunk.isra.0+0x7c>
  402410:	d0000260 	adrp	x0, 450000 <__PRETTY_FUNCTION__.1+0x308>
  402414:	9105e000 	add	x0, x0, #0x178
  402418:	97fffdfa 	bl	401c00 <malloc_printerr>
  40241c:	a9020421 	stp	x1, x1, [x1, #32]
  402420:	17fffff3 	b	4023ec <unlink_chunk.isra.0+0x7c>
  402424:	d0000260 	adrp	x0, 450000 <__PRETTY_FUNCTION__.1+0x308>
  402428:	91056000 	add	x0, x0, #0x158
  40242c:	97fffdf5 	bl	401c00 <malloc_printerr>
  402430:	d0000260 	adrp	x0, 450000 <__PRETTY_FUNCTION__.1+0x308>
  402434:	91066000 	add	x0, x0, #0x198
  402438:	97fffdf2 	bl	401c00 <malloc_printerr>
  40243c:	d503201f 	nop

0000000000402440 <malloc_consolidate>:
  402440:	a9b97bfd 	stp	x29, x30, [sp, #-112]!
  402444:	910003fd 	mov	x29, sp
  402448:	a90363f7 	stp	x23, x24, [sp, #48]
  40244c:	aa0003f8 	mov	x24, x0
  402450:	91002000 	add	x0, x0, #0x8
  402454:	a9046bf9 	stp	x25, x26, [sp, #64]
  402458:	a90573fb 	stp	x27, x28, [sp, #80]
  40245c:	b900001f 	str	wzr, [x0]
  402460:	9101831b 	add	x27, x24, #0x60
  402464:	91004319 	add	x25, x24, #0x10
  402468:	aa1903e1 	mov	x1, x25
  40246c:	d2800000 	mov	x0, #0x0                   	// #0
  402470:	94011bc8 	bl	449390 <__aarch64_swp8_acq>
  402474:	b5000120 	cbnz	x0, 402498 <malloc_consolidate+0x58>
  402478:	91002339 	add	x25, x25, #0x8
  40247c:	eb19037f 	cmp	x27, x25
  402480:	54ffff41 	b.ne	402468 <malloc_consolidate+0x28>  // b.any
  402484:	a94363f7 	ldp	x23, x24, [sp, #48]
  402488:	a9446bf9 	ldp	x25, x26, [sp, #64]
  40248c:	a94573fb 	ldp	x27, x28, [sp, #80]
  402490:	a8c77bfd 	ldp	x29, x30, [sp], #112
  402494:	d65f03c0 	ret
  402498:	a90153f3 	stp	x19, x20, [sp, #16]
  40249c:	aa0003f3 	mov	x19, x0
  4024a0:	a9025bf5 	stp	x21, x22, [sp, #32]
  4024a4:	14000013 	b	4024f0 <malloc_consolidate+0xb0>
  4024a8:	8b1c02c0 	add	x0, x22, x28
  4024ac:	f9400400 	ldr	x0, [x0, #8]
  4024b0:	36000720 	tbz	w0, #0, 402594 <malloc_consolidate+0x154>
  4024b4:	927ffaf7 	and	x23, x23, #0xfffffffffffffffe
  4024b8:	f90006d7 	str	x23, [x22, #8]
  4024bc:	f9400b60 	ldr	x0, [x27, #16]
  4024c0:	f9000b73 	str	x19, [x27, #16]
  4024c4:	f9000c13 	str	x19, [x0, #24]
  4024c8:	f10ffe9f 	cmp	x20, #0x3ff
  4024cc:	54000049 	b.ls	4024d4 <malloc_consolidate+0x94>  // b.plast
  4024d0:	a9027e7f 	stp	xzr, xzr, [x19, #32]
  4024d4:	b2400281 	orr	x1, x20, #0x1
  4024d8:	a9008261 	stp	x1, x0, [x19, #8]
  4024dc:	f9000e7b 	str	x27, [x19, #24]
  4024e0:	f8346a74 	str	x20, [x19, x20]
  4024e4:	eb1a02bf 	cmp	x21, x26
  4024e8:	54000500 	b.eq	402588 <malloc_consolidate+0x148>  // b.none
  4024ec:	aa0203f3 	mov	x19, x2
  4024f0:	f2400e7f 	tst	x19, #0xf
  4024f4:	540005c1 	b.ne	4025ac <malloc_consolidate+0x16c>  // b.any
  4024f8:	f9400663 	ldr	x3, [x19, #8]
  4024fc:	53047c62 	lsr	w2, w3, #4
  402500:	51000842 	sub	w2, w2, #0x2
  402504:	91000842 	add	x2, x2, #0x2
  402508:	8b020f02 	add	x2, x24, x2, lsl #3
  40250c:	eb02033f 	cmp	x25, x2
  402510:	540005a1 	b.ne	4025c4 <malloc_consolidate+0x184>  // b.any
  402514:	927df074 	and	x20, x3, #0xfffffffffffffff8
  402518:	91004275 	add	x21, x19, #0x10
  40251c:	8b140276 	add	x22, x19, x20
  402520:	f9400a7a 	ldr	x26, [x19, #16]
  402524:	d34cfeb5 	lsr	x21, x21, #12
  402528:	f94006d7 	ldr	x23, [x22, #8]
  40252c:	ca1a02a2 	eor	x2, x21, x26
  402530:	927df2fc 	and	x28, x23, #0xfffffffffffffff8
  402534:	37000183 	tbnz	w3, #0, 402564 <malloc_consolidate+0x124>
  402538:	f9400260 	ldr	x0, [x19]
  40253c:	cb000273 	sub	x19, x19, x0
  402540:	8b000294 	add	x20, x20, x0
  402544:	f9400661 	ldr	x1, [x19, #8]
  402548:	927df021 	and	x1, x1, #0xfffffffffffffff8
  40254c:	eb00003f 	cmp	x1, x0
  402550:	54000341 	b.ne	4025b8 <malloc_consolidate+0x178>  // b.any
  402554:	aa1303e0 	mov	x0, x19
  402558:	f90037e2 	str	x2, [sp, #104]
  40255c:	97ffff85 	bl	402370 <unlink_chunk.isra.0>
  402560:	f94037e2 	ldr	x2, [sp, #104]
  402564:	f9403300 	ldr	x0, [x24, #96]
  402568:	eb16001f 	cmp	x0, x22
  40256c:	54fff9e1 	b.ne	4024a8 <malloc_consolidate+0x68>  // b.any
  402570:	8b1c0294 	add	x20, x20, x28
  402574:	b2400294 	orr	x20, x20, #0x1
  402578:	f9000674 	str	x20, [x19, #8]
  40257c:	f9003313 	str	x19, [x24, #96]
  402580:	eb1a02bf 	cmp	x21, x26
  402584:	54fffb41 	b.ne	4024ec <malloc_consolidate+0xac>  // b.any
  402588:	a94153f3 	ldp	x19, x20, [sp, #16]
  40258c:	a9425bf5 	ldp	x21, x22, [sp, #32]
  402590:	17ffffba 	b	402478 <malloc_consolidate+0x38>
  402594:	aa1603e0 	mov	x0, x22
  402598:	f90037e2 	str	x2, [sp, #104]
  40259c:	97ffff75 	bl	402370 <unlink_chunk.isra.0>
  4025a0:	8b1c0294 	add	x20, x20, x28
  4025a4:	f94037e2 	ldr	x2, [sp, #104]
  4025a8:	17ffffc5 	b	4024bc <malloc_consolidate+0x7c>
  4025ac:	d0000260 	adrp	x0, 450000 <__PRETTY_FUNCTION__.1+0x308>
  4025b0:	91072000 	add	x0, x0, #0x1c8
  4025b4:	97fffd93 	bl	401c00 <malloc_printerr>
  4025b8:	d0000260 	adrp	x0, 450000 <__PRETTY_FUNCTION__.1+0x308>
  4025bc:	9108c000 	add	x0, x0, #0x230
  4025c0:	97fffd90 	bl	401c00 <malloc_printerr>
  4025c4:	d0000260 	adrp	x0, 450000 <__PRETTY_FUNCTION__.1+0x308>
  4025c8:	91080000 	add	x0, x0, #0x200
  4025cc:	97fffd8d 	bl	401c00 <malloc_printerr>

00000000004025d0 <_int_free_create_chunk>:
  4025d0:	a9bd7bfd 	stp	x29, x30, [sp, #-48]!
  4025d4:	910003fd 	mov	x29, sp
  4025d8:	a90153f3 	stp	x19, x20, [sp, #16]
  4025dc:	aa0003f4 	mov	x20, x0
  4025e0:	aa0203f3 	mov	x19, x2
  4025e4:	f9403000 	ldr	x0, [x0, #96]
  4025e8:	a9025bf5 	stp	x21, x22, [sp, #32]
  4025ec:	aa0103f5 	mov	x21, x1
  4025f0:	aa0403f6 	mov	x22, x4
  4025f4:	eb03001f 	cmp	x0, x3
  4025f8:	540003c0 	b.eq	402670 <_int_free_create_chunk+0xa0>  // b.none
  4025fc:	8b040060 	add	x0, x3, x4
  402600:	f9400400 	ldr	x0, [x0, #8]
  402604:	360002e0 	tbz	w0, #0, 402660 <_int_free_create_chunk+0x90>
  402608:	f9400461 	ldr	x1, [x3, #8]
  40260c:	aa0203e0 	mov	x0, x2
  402610:	927ff821 	and	x1, x1, #0xfffffffffffffffe
  402614:	f9000461 	str	x1, [x3, #8]
  402618:	f9403a81 	ldr	x1, [x20, #112]
  40261c:	91018282 	add	x2, x20, #0x60
  402620:	f9400c23 	ldr	x3, [x1, #24]
  402624:	eb02007f 	cmp	x3, x2
  402628:	54000341 	b.ne	402690 <_int_free_create_chunk+0xc0>  // b.any
  40262c:	a9010aa1 	stp	x1, x2, [x21, #16]
  402630:	f10ffc1f 	cmp	x0, #0x3ff
  402634:	54000049 	b.ls	40263c <_int_free_create_chunk+0x6c>  // b.plast
  402638:	a9027ebf 	stp	xzr, xzr, [x21, #32]
  40263c:	f9000855 	str	x21, [x2, #16]
  402640:	f9000c35 	str	x21, [x1, #24]
  402644:	b2400001 	orr	x1, x0, #0x1
  402648:	f90006a1 	str	x1, [x21, #8]
  40264c:	f8206aa0 	str	x0, [x21, x0]
  402650:	a94153f3 	ldp	x19, x20, [sp, #16]
  402654:	a9425bf5 	ldp	x21, x22, [sp, #32]
  402658:	a8c37bfd 	ldp	x29, x30, [sp], #48
  40265c:	d65f03c0 	ret
  402660:	aa0303e0 	mov	x0, x3
  402664:	97ffff43 	bl	402370 <unlink_chunk.isra.0>
  402668:	8b160260 	add	x0, x19, x22
  40266c:	17ffffeb 	b	402618 <_int_free_create_chunk+0x48>
  402670:	8b040040 	add	x0, x2, x4
  402674:	b2400001 	orr	x1, x0, #0x1
  402678:	f90006a1 	str	x1, [x21, #8]
  40267c:	f9003295 	str	x21, [x20, #96]
  402680:	a94153f3 	ldp	x19, x20, [sp, #16]
  402684:	a9425bf5 	ldp	x21, x22, [sp, #32]
  402688:	a8c37bfd 	ldp	x29, x30, [sp], #48
  40268c:	d65f03c0 	ret
  402690:	d0000260 	adrp	x0, 450000 <__PRETTY_FUNCTION__.1+0x308>
  402694:	91098000 	add	x0, x0, #0x260
  402698:	97fffd5a 	bl	401c00 <malloc_printerr>
  40269c:	d503201f 	nop

00000000004026a0 <ptmalloc_init.part.0>:
  4026a0:	a9bc7bfd 	stp	x29, x30, [sp, #-64]!
  4026a4:	52800023 	mov	w3, #0x1                   	// #1
  4026a8:	d2800101 	mov	x1, #0x8                   	// #8
  4026ac:	910003fd 	mov	x29, sp
  4026b0:	a90153f3 	stp	x19, x20, [sp, #16]
  4026b4:	900004b4 	adrp	x20, 496000 <__pthread_keys+0x39d0>
  4026b8:	d2800022 	mov	x2, #0x1                   	// #1
  4026bc:	a9025bf5 	stp	x21, x22, [sp, #32]
  4026c0:	9118c296 	add	x22, x20, #0x630
  4026c4:	910022c0 	add	x0, x22, #0x8
  4026c8:	d28022c8 	mov	x8, #0x116                 	// #278
  4026cc:	390016c3 	strb	w3, [x22, #5]
  4026d0:	d4000001 	svc	#0x0
  4026d4:	9100c3f3 	add	x19, sp, #0x30
  4026d8:	eb01001f 	cmp	x0, x1
  4026dc:	54000200 	b.eq	40271c <ptmalloc_init.part.0+0x7c>  // b.none
  4026e0:	2a0203e0 	mov	w0, w2
  4026e4:	aa1303e1 	mov	x1, x19
  4026e8:	94001c8a 	bl	409910 <__clock_gettime>
  4026ec:	a94357e2 	ldp	x2, x21, [sp, #48]
  4026f0:	aa1303e1 	mov	x1, x19
  4026f4:	52800020 	mov	w0, #0x1                   	// #1
  4026f8:	4a0202b5 	eor	w21, w21, w2
  4026fc:	4ad522b5 	eor	w21, w21, w21, ror #8
  402700:	f90006d5 	str	x21, [x22, #8]
  402704:	94001c83 	bl	409910 <__clock_gettime>
  402708:	a94303e1 	ldp	x1, x0, [sp, #48]
  40270c:	4a010000 	eor	w0, w0, w1
  402710:	4ac02000 	eor	w0, w0, w0, ror #8
  402714:	aa158015 	orr	x21, x0, x21, lsl #32
  402718:	f90006d5 	str	x21, [x22, #8]
  40271c:	d2a00002 	movz	x2, #0x0, lsl #16
  402720:	f2800602 	movk	x2, #0x30
  402724:	d53bd044 	mrs	x4, tpidr_el0
  402728:	d0000463 	adrp	x3, 490000 <.got.plt+0x18>
  40272c:	9103c065 	add	x5, x3, #0xf0
  402730:	910180a0 	add	x0, x5, #0x60
  402734:	912140a1 	add	x1, x5, #0x850
  402738:	f8226885 	str	x5, [x4, x2]
  40273c:	d503201f 	nop
  402740:	a9010000 	stp	x0, x0, [x0, #16]
  402744:	91004000 	add	x0, x0, #0x10
  402748:	eb00003f 	cmp	x1, x0
  40274c:	54ffffa1 	b.ne	402740 <ptmalloc_init.part.0+0xa0>  // b.any
  402750:	9118c294 	add	x20, x20, #0x630
  402754:	12800fe1 	mov	w1, #0xffffff80            	// #-128
  402758:	9103c063 	add	x3, x3, #0xf0
  40275c:	91002060 	add	x0, x3, #0x8
  402760:	39001281 	strb	w1, [x20, #4]
  402764:	b900001f 	str	wzr, [x0]
  402768:	91018064 	add	x4, x3, #0x60
  40276c:	aa1303e1 	mov	x1, x19
  402770:	528001a0 	mov	w0, #0xd                   	// #13
  402774:	f0ffffe2 	adrp	x2, 401000 <__sigsetjmp>
  402778:	912bc042 	add	x2, x2, #0xaf0
  40277c:	f9003064 	str	x4, [x3, #96]
  402780:	94002570 	bl	40bd40 <__tunable_get_val>
  402784:	aa1303e1 	mov	x1, x19
  402788:	52800060 	mov	w0, #0x3                   	// #3
  40278c:	f0ffffe2 	adrp	x2, 401000 <__sigsetjmp>
  402790:	912c4042 	add	x2, x2, #0xb10
  402794:	9400256b 	bl	40bd40 <__tunable_get_val>
  402798:	aa1303e1 	mov	x1, x19
  40279c:	528002e0 	mov	w0, #0x17                  	// #23
  4027a0:	f0ffffe2 	adrp	x2, 401000 <__sigsetjmp>
  4027a4:	912ac042 	add	x2, x2, #0xab0
  4027a8:	94002566 	bl	40bd40 <__tunable_get_val>
  4027ac:	aa1303e1 	mov	x1, x19
  4027b0:	52800040 	mov	w0, #0x2                   	// #2
  4027b4:	f0ffffe2 	adrp	x2, 401000 <__sigsetjmp>
  4027b8:	912c8042 	add	x2, x2, #0xb20
  4027bc:	94002561 	bl	40bd40 <__tunable_get_val>
  4027c0:	aa1303e1 	mov	x1, x19
  4027c4:	52800220 	mov	w0, #0x11                  	// #17
  4027c8:	f0ffffe2 	adrp	x2, 401000 <__sigsetjmp>
  4027cc:	912b4042 	add	x2, x2, #0xad0
  4027d0:	9400255c 	bl	40bd40 <__tunable_get_val>
  4027d4:	aa1303e1 	mov	x1, x19
  4027d8:	528002c0 	mov	w0, #0x16                  	// #22
  4027dc:	f0ffffe2 	adrp	x2, 401000 <__sigsetjmp>
  4027e0:	912d0042 	add	x2, x2, #0xb40
  4027e4:	94002557 	bl	40bd40 <__tunable_get_val>
  4027e8:	aa1303e1 	mov	x1, x19
  4027ec:	52800320 	mov	w0, #0x19                  	// #25
  4027f0:	f0ffffe2 	adrp	x2, 401000 <__sigsetjmp>
  4027f4:	912d4042 	add	x2, x2, #0xb50
  4027f8:	94002552 	bl	40bd40 <__tunable_get_val>
  4027fc:	aa1303e1 	mov	x1, x19
  402800:	528003a0 	mov	w0, #0x1d                  	// #29
  402804:	f0ffffe2 	adrp	x2, 401000 <__sigsetjmp>
  402808:	912d8042 	add	x2, x2, #0xb60
  40280c:	9400254d 	bl	40bd40 <__tunable_get_val>
  402810:	aa1303e1 	mov	x1, x19
  402814:	52800300 	mov	w0, #0x18                  	// #24
  402818:	f0ffffe2 	adrp	x2, 401000 <__sigsetjmp>
  40281c:	912e8042 	add	x2, x2, #0xba0
  402820:	94002548 	bl	40bd40 <__tunable_get_val>
  402824:	aa1303e1 	mov	x1, x19
  402828:	52800260 	mov	w0, #0x13                  	// #19
  40282c:	f0ffffe2 	adrp	x2, 401000 <__sigsetjmp>
  402830:	912f0042 	add	x2, x2, #0xbc0
  402834:	94002543 	bl	40bd40 <__tunable_get_val>
  402838:	aa1303e1 	mov	x1, x19
  40283c:	52800140 	mov	w0, #0xa                   	// #10
  402840:	f0ffffe2 	adrp	x2, 401000 <__sigsetjmp>
  402844:	912f4042 	add	x2, x2, #0xbd0
  402848:	9400253e 	bl	40bd40 <__tunable_get_val>
  40284c:	52800120 	mov	w0, #0x9                   	// #9
  402850:	aa1303e1 	mov	x1, x19
  402854:	f0ffffe2 	adrp	x2, 401000 <__sigsetjmp>
  402858:	9138c042 	add	x2, x2, #0xe30
  40285c:	94002539 	bl	40bd40 <__tunable_get_val>
  402860:	d0000460 	adrp	x0, 490000 <.got.plt+0x18>
  402864:	f9404000 	ldr	x0, [x0, #128]
  402868:	b4000060 	cbz	x0, 402874 <ptmalloc_init.part.0+0x1d4>
  40286c:	52800020 	mov	w0, #0x1                   	// #1
  402870:	39004280 	strb	w0, [x20, #16]
  402874:	a94153f3 	ldp	x19, x20, [sp, #16]
  402878:	a9425bf5 	ldp	x21, x22, [sp, #32]
  40287c:	a8c47bfd 	ldp	x29, x30, [sp], #64
  402880:	d65f03c0 	ret

0000000000402884 <alloc_new_heap>:
  402884:	a9bb7bfd 	stp	x29, x30, [sp, #-80]!
  402888:	910003fd 	mov	x29, sp
  40288c:	a9025bf5 	stp	x21, x22, [sp, #32]
  402890:	d0000476 	adrp	x22, 490000 <.got.plt+0x18>
  402894:	910142c4 	add	x4, x22, #0x50
  402898:	a90153f3 	stp	x19, x20, [sp, #16]
  40289c:	f9401884 	ldr	x4, [x4, #48]
  4028a0:	a90363f7 	stp	x23, x24, [sp, #48]
  4028a4:	aa0203f7 	mov	x23, x2
  4028a8:	d37ef495 	lsl	x21, x4, #2
  4028ac:	b5000064 	cbnz	x4, 4028b8 <alloc_new_heap+0x34>
  4028b0:	d2900004 	mov	x4, #0x8000                	// #32768
  4028b4:	d2a08015 	mov	x21, #0x4000000             	// #67108864
  4028b8:	8b010001 	add	x1, x0, x1
  4028bc:	eb04003f 	cmp	x1, x4
  4028c0:	54000123 	b.cc	4028e4 <alloc_new_heap+0x60>  // b.lo, b.ul, b.last
  4028c4:	eb15003f 	cmp	x1, x21
  4028c8:	54000088 	b.hi	4028d8 <alloc_new_heap+0x54>  // b.pmore
  4028cc:	aa0103e4 	mov	x4, x1
  4028d0:	a9046bf9 	stp	x25, x26, [sp, #64]
  4028d4:	14000005 	b	4028e8 <alloc_new_heap+0x64>
  4028d8:	aa1503e4 	mov	x4, x21
  4028dc:	eb15001f 	cmp	x0, x21
  4028e0:	540009a8 	b.hi	402a14 <alloc_new_heap+0x190>  // b.pmore
  4028e4:	a9046bf9 	stp	x25, x26, [sp, #64]
  4028e8:	900004b8 	adrp	x24, 496000 <__pthread_keys+0x39d0>
  4028ec:	9118c31a 	add	x26, x24, #0x630
  4028f0:	d10006e1 	sub	x1, x23, #0x1
  4028f4:	cb1703f4 	neg	x20, x23
  4028f8:	8b040021 	add	x1, x1, x4
  4028fc:	52800442 	mov	w2, #0x22                  	// #34
  402900:	8a010294 	and	x20, x20, x1
  402904:	f9400f40 	ldr	x0, [x26, #24]
  402908:	2a020079 	orr	w25, w3, w2
  40290c:	b4000460 	cbz	x0, 402998 <alloc_new_heap+0x114>
  402910:	2a1903e3 	mov	w3, w25
  402914:	aa1503e1 	mov	x1, x21
  402918:	d2800005 	mov	x5, #0x0                   	// #0
  40291c:	12800004 	mov	w4, #0xffffffff            	// #-1
  402920:	52800002 	mov	w2, #0x0                   	// #0
  402924:	94001e7f 	bl	40a320 <__mmap64>
  402928:	f9000f5f 	str	xzr, [x26, #24]
  40292c:	aa0003f3 	mov	x19, x0
  402930:	b100041f 	cmn	x0, #0x1
  402934:	54000320 	b.eq	402998 <alloc_new_heap+0x114>  // b.none
  402938:	d10006a1 	sub	x1, x21, #0x1
  40293c:	ea01001f 	tst	x0, x1
  402940:	54000281 	b.ne	402990 <alloc_new_heap+0x10c>  // b.any
  402944:	aa1403e1 	mov	x1, x20
  402948:	aa1303e0 	mov	x0, x19
  40294c:	52800062 	mov	w2, #0x3                   	// #3
  402950:	94001e8c 	bl	40a380 <__mprotect>
  402954:	35000580 	cbnz	w0, 402a04 <alloc_new_heap+0x180>
  402958:	910142d6 	add	x22, x22, #0x50
  40295c:	f94016c0 	ldr	x0, [x22, #40]
  402960:	d1000400 	sub	x0, x0, #0x1
  402964:	eb14001f 	cmp	x0, x20
  402968:	540005a3 	b.cc	402a1c <alloc_new_heap+0x198>  // b.lo, b.ul, b.last
  40296c:	a9446bf9 	ldp	x25, x26, [sp, #64]
  402970:	a9015274 	stp	x20, x20, [x19, #16]
  402974:	f9001277 	str	x23, [x19, #32]
  402978:	a9425bf5 	ldp	x21, x22, [sp, #32]
  40297c:	aa1303e0 	mov	x0, x19
  402980:	a94153f3 	ldp	x19, x20, [sp, #16]
  402984:	a94363f7 	ldp	x23, x24, [sp, #48]
  402988:	a8c57bfd 	ldp	x29, x30, [sp], #80
  40298c:	d65f03c0 	ret
  402990:	aa1503e1 	mov	x1, x21
  402994:	94001e8b 	bl	40a3c0 <__munmap>
  402998:	12800004 	mov	w4, #0xffffffff            	// #-1
  40299c:	2a1903e3 	mov	w3, w25
  4029a0:	d37ffaa1 	lsl	x1, x21, #1
  4029a4:	d2800005 	mov	x5, #0x0                   	// #0
  4029a8:	52800002 	mov	w2, #0x0                   	// #0
  4029ac:	d2800000 	mov	x0, #0x0                   	// #0
  4029b0:	94001e5c 	bl	40a320 <__mmap64>
  4029b4:	aa0003e4 	mov	x4, x0
  4029b8:	b100041f 	cmn	x0, #0x1
  4029bc:	540004c0 	b.eq	402a54 <alloc_new_heap+0x1d0>  // b.none
  4029c0:	d10006b3 	sub	x19, x21, #0x1
  4029c4:	cb1503e1 	neg	x1, x21
  4029c8:	8b130013 	add	x19, x0, x19
  4029cc:	8a010273 	and	x19, x19, x1
  4029d0:	eb000279 	subs	x25, x19, x0
  4029d4:	8b15027a 	add	x26, x19, x21
  4029d8:	54000381 	b.ne	402a48 <alloc_new_heap+0x1c4>  // b.any
  4029dc:	9118c318 	add	x24, x24, #0x630
  4029e0:	f9000f1a 	str	x26, [x24, #24]
  4029e4:	cb1902a1 	sub	x1, x21, x25
  4029e8:	aa1a03e0 	mov	x0, x26
  4029ec:	94001e75 	bl	40a3c0 <__munmap>
  4029f0:	aa1403e1 	mov	x1, x20
  4029f4:	aa1303e0 	mov	x0, x19
  4029f8:	52800062 	mov	w2, #0x3                   	// #3
  4029fc:	94001e61 	bl	40a380 <__mprotect>
  402a00:	34fffac0 	cbz	w0, 402958 <alloc_new_heap+0xd4>
  402a04:	aa1503e1 	mov	x1, x21
  402a08:	aa1303e0 	mov	x0, x19
  402a0c:	94001e6d 	bl	40a3c0 <__munmap>
  402a10:	a9446bf9 	ldp	x25, x26, [sp, #64]
  402a14:	d2800013 	mov	x19, #0x0                   	// #0
  402a18:	17ffffd8 	b	402978 <alloc_new_heap+0xf4>
  402a1c:	b0000462 	adrp	x2, 48f000 <_IO_file_jumps+0x130>
  402a20:	f947d842 	ldr	x2, [x2, #4016]
  402a24:	aa1403e1 	mov	x1, x20
  402a28:	aa1303e0 	mov	x0, x19
  402a2c:	f9400043 	ldr	x3, [x2]
  402a30:	d1000462 	sub	x2, x3, #0x1
  402a34:	ea130042 	ands	x2, x2, x19
  402a38:	54000301 	b.ne	402a98 <alloc_new_heap+0x214>  // b.any
  402a3c:	528001c2 	mov	w2, #0xe                   	// #14
  402a40:	94001e30 	bl	40a300 <__madvise>
  402a44:	17ffffca 	b	40296c <alloc_new_heap+0xe8>
  402a48:	aa1903e1 	mov	x1, x25
  402a4c:	94001e5d 	bl	40a3c0 <__munmap>
  402a50:	17ffffe5 	b	4029e4 <alloc_new_heap+0x160>
  402a54:	2a1903e3 	mov	w3, w25
  402a58:	aa1503e1 	mov	x1, x21
  402a5c:	d2800005 	mov	x5, #0x0                   	// #0
  402a60:	52800002 	mov	w2, #0x0                   	// #0
  402a64:	d2800000 	mov	x0, #0x0                   	// #0
  402a68:	94001e2e 	bl	40a320 <__mmap64>
  402a6c:	aa0003f3 	mov	x19, x0
  402a70:	b100041f 	cmn	x0, #0x1
  402a74:	540001a0 	b.eq	402aa8 <alloc_new_heap+0x224>  // b.none
  402a78:	d10006a1 	sub	x1, x21, #0x1
  402a7c:	ea01001f 	tst	x0, x1
  402a80:	54fff620 	b.eq	402944 <alloc_new_heap+0xc0>  // b.none
  402a84:	aa1503e1 	mov	x1, x21
  402a88:	d2800013 	mov	x19, #0x0                   	// #0
  402a8c:	94001e4d 	bl	40a3c0 <__munmap>
  402a90:	a9446bf9 	ldp	x25, x26, [sp, #64]
  402a94:	17ffffb9 	b	402978 <alloc_new_heap+0xf4>
  402a98:	cb0303e3 	neg	x3, x3
  402a9c:	8b020281 	add	x1, x20, x2
  402aa0:	8a130060 	and	x0, x3, x19
  402aa4:	17ffffe6 	b	402a3c <alloc_new_heap+0x1b8>
  402aa8:	a9446bf9 	ldp	x25, x26, [sp, #64]
  402aac:	d2800013 	mov	x19, #0x0                   	// #0
  402ab0:	17ffffb2 	b	402978 <alloc_new_heap+0xf4>

0000000000402ab4 <new_heap>:
  402ab4:	d0000463 	adrp	x3, 490000 <.got.plt+0x18>
  402ab8:	91014063 	add	x3, x3, #0x50
  402abc:	a9be7bfd 	stp	x29, x30, [sp, #-32]!
  402ac0:	910003fd 	mov	x29, sp
  402ac4:	f9401862 	ldr	x2, [x3, #48]
  402ac8:	a90153f3 	stp	x19, x20, [sp, #16]
  402acc:	aa0003f3 	mov	x19, x0
  402ad0:	aa0103f4 	mov	x20, x1
  402ad4:	b5000142 	cbnz	x2, 402afc <new_heap+0x48>
  402ad8:	b0000462 	adrp	x2, 48f000 <_IO_file_jumps+0x130>
  402adc:	f947d842 	ldr	x2, [x2, #4016]
  402ae0:	aa1403e1 	mov	x1, x20
  402ae4:	aa1303e0 	mov	x0, x19
  402ae8:	52800003 	mov	w3, #0x0                   	// #0
  402aec:	a94153f3 	ldp	x19, x20, [sp, #16]
  402af0:	a8c27bfd 	ldp	x29, x30, [sp], #32
  402af4:	f9400042 	ldr	x2, [x2]
  402af8:	17ffff63 	b	402884 <alloc_new_heap>
  402afc:	b9403863 	ldr	w3, [x3, #56]
  402b00:	97ffff61 	bl	402884 <alloc_new_heap>
  402b04:	b4fffea0 	cbz	x0, 402ad8 <new_heap+0x24>
  402b08:	a94153f3 	ldp	x19, x20, [sp, #16]
  402b0c:	a8c27bfd 	ldp	x29, x30, [sp], #32
  402b10:	d65f03c0 	ret

0000000000402b14 <arena_get2>:
  402b14:	a9ba7bfd 	stp	x29, x30, [sp, #-96]!
  402b18:	910003fd 	mov	x29, sp
  402b1c:	a90153f3 	stp	x19, x20, [sp, #16]
  402b20:	900004b4 	adrp	x20, 496000 <__pthread_keys+0x39d0>
  402b24:	9118c282 	add	x2, x20, #0x630
  402b28:	a9025bf5 	stp	x21, x22, [sp, #32]
  402b2c:	d53bd056 	mrs	x22, tpidr_el0
  402b30:	d2a00015 	movz	x21, #0x0, lsl #16
  402b34:	f2800615 	movk	x21, #0x30
  402b38:	f9401043 	ldr	x3, [x2, #32]
  402b3c:	a90363f7 	stp	x23, x24, [sp, #48]
  402b40:	aa0003f7 	mov	x23, x0
  402b44:	a9046bf9 	stp	x25, x26, [sp, #64]
  402b48:	aa0103f8 	mov	x24, x1
  402b4c:	f8756ad9 	ldr	x25, [x22, x21]
  402b50:	b4000543 	cbz	x3, 402bf8 <arena_get2+0xe4>
  402b54:	9100a053 	add	x19, x2, #0x28
  402b58:	52800021 	mov	w1, #0x1                   	// #1
  402b5c:	aa1303e2 	mov	x2, x19
  402b60:	52800000 	mov	w0, #0x0                   	// #0
  402b64:	9401196b 	bl	449110 <__aarch64_cas4_acq>
  402b68:	35001080 	cbnz	w0, 402d78 <arena_get2+0x264>
  402b6c:	9118c281 	add	x1, x20, #0x630
  402b70:	f9401033 	ldr	x19, [x1, #32]
  402b74:	b4000d33 	cbz	x19, 402d18 <arena_get2+0x204>
  402b78:	f9444260 	ldr	x0, [x19, #2176]
  402b7c:	f9443e62 	ldr	x2, [x19, #2168]
  402b80:	f9001022 	str	x2, [x1, #32]
  402b84:	b50023c0 	cbnz	x0, 402ffc <arena_get2+0x4e8>
  402b88:	d2800020 	mov	x0, #0x1                   	// #1
  402b8c:	f9044260 	str	x0, [x19, #2176]
  402b90:	b40000b9 	cbz	x25, 402ba4 <arena_get2+0x90>
  402b94:	f9444320 	ldr	x0, [x25, #2176]
  402b98:	b40022a0 	cbz	x0, 402fec <arena_get2+0x4d8>
  402b9c:	d1000400 	sub	x0, x0, #0x1
  402ba0:	f9044320 	str	x0, [x25, #2176]
  402ba4:	9100a021 	add	x1, x1, #0x28
  402ba8:	52800000 	mov	w0, #0x0                   	// #0
  402bac:	94011a05 	bl	4493c0 <__aarch64_swp4_rel>
  402bb0:	7100041f 	cmp	w0, #0x1
  402bb4:	54000e8c 	b.gt	402d84 <arena_get2+0x270>
  402bb8:	aa1303e2 	mov	x2, x19
  402bbc:	52800021 	mov	w1, #0x1                   	// #1
  402bc0:	52800000 	mov	w0, #0x0                   	// #0
  402bc4:	94011953 	bl	449110 <__aarch64_cas4_acq>
  402bc8:	35000120 	cbnz	w0, 402bec <arena_get2+0xd8>
  402bcc:	f8356ad3 	str	x19, [x22, x21]
  402bd0:	a9425bf5 	ldp	x21, x22, [sp, #32]
  402bd4:	aa1303e0 	mov	x0, x19
  402bd8:	a94153f3 	ldp	x19, x20, [sp, #16]
  402bdc:	a94363f7 	ldp	x23, x24, [sp, #48]
  402be0:	a9446bf9 	ldp	x25, x26, [sp, #64]
  402be4:	a8c67bfd 	ldp	x29, x30, [sp], #96
  402be8:	d65f03c0 	ret
  402bec:	aa1303e0 	mov	x0, x19
  402bf0:	97fffaf4 	bl	4017c0 <__lll_lock_wait_private>
  402bf4:	17fffff6 	b	402bcc <arena_get2+0xb8>
  402bf8:	a90573fb 	stp	x27, x28, [sp, #80]
  402bfc:	9118c29a 	add	x26, x20, #0x630
  402c00:	d000047b 	adrp	x27, 490000 <.got.plt+0x18>
  402c04:	91014373 	add	x19, x27, #0x50
  402c08:	f9401b40 	ldr	x0, [x26, #48]
  402c0c:	f9404679 	ldr	x25, [x19, #136]
  402c10:	b50000c0 	cbnz	x0, 402c28 <arena_get2+0x114>
  402c14:	f9401260 	ldr	x0, [x19, #32]
  402c18:	b5000ac0 	cbnz	x0, 402d70 <arena_get2+0x25c>
  402c1c:	f9400e61 	ldr	x1, [x19, #24]
  402c20:	eb19003f 	cmp	x1, x25
  402c24:	54000983 	b.cc	402d54 <arena_get2+0x240>  // b.lo, b.ul, b.last
  402c28:	d1000400 	sub	x0, x0, #0x1
  402c2c:	eb19001f 	cmp	x0, x25
  402c30:	54000d62 	b.cs	402ddc <arena_get2+0x2c8>  // b.hs, b.nlast
  402c34:	9118c280 	add	x0, x20, #0x630
  402c38:	f9402013 	ldr	x19, [x0, #64]
  402c3c:	b4000833 	cbz	x19, 402d40 <arena_get2+0x22c>
  402c40:	aa1303e2 	mov	x2, x19
  402c44:	52800021 	mov	w1, #0x1                   	// #1
  402c48:	52800000 	mov	w0, #0x0                   	// #0
  402c4c:	94011931 	bl	449110 <__aarch64_cas4_acq>
  402c50:	35000a80 	cbnz	w0, 402da0 <arena_get2+0x28c>
  402c54:	9118c297 	add	x23, x20, #0x630
  402c58:	52800021 	mov	w1, #0x1                   	// #1
  402c5c:	9100a2f7 	add	x23, x23, #0x28
  402c60:	52800000 	mov	w0, #0x0                   	// #0
  402c64:	f8756ad8 	ldr	x24, [x22, x21]
  402c68:	aa1703e2 	mov	x2, x23
  402c6c:	94011929 	bl	449110 <__aarch64_cas4_acq>
  402c70:	35000920 	cbnz	w0, 402d94 <arena_get2+0x280>
  402c74:	b40000b8 	cbz	x24, 402c88 <arena_get2+0x174>
  402c78:	f9444300 	ldr	x0, [x24, #2176]
  402c7c:	b4001ba0 	cbz	x0, 402ff0 <arena_get2+0x4dc>
  402c80:	d1000400 	sub	x0, x0, #0x1
  402c84:	f9044300 	str	x0, [x24, #2176]
  402c88:	9118c282 	add	x2, x20, #0x630
  402c8c:	f9401040 	ldr	x0, [x2, #32]
  402c90:	b4000180 	cbz	x0, 402cc0 <arena_get2+0x1ac>
  402c94:	91008042 	add	x2, x2, #0x20
  402c98:	14000004 	b	402ca8 <arena_get2+0x194>
  402c9c:	9121e002 	add	x2, x0, #0x878
  402ca0:	b4000101 	cbz	x1, 402cc0 <arena_get2+0x1ac>
  402ca4:	aa0103e0 	mov	x0, x1
  402ca8:	f9444001 	ldr	x1, [x0, #2176]
  402cac:	b5000c01 	cbnz	x1, 402e2c <arena_get2+0x318>
  402cb0:	f9443c01 	ldr	x1, [x0, #2168]
  402cb4:	eb13001f 	cmp	x0, x19
  402cb8:	54ffff21 	b.ne	402c9c <arena_get2+0x188>  // b.any
  402cbc:	f9000041 	str	x1, [x2]
  402cc0:	f9444261 	ldr	x1, [x19, #2176]
  402cc4:	9118c297 	add	x23, x20, #0x630
  402cc8:	9100a2f7 	add	x23, x23, #0x28
  402ccc:	52800000 	mov	w0, #0x0                   	// #0
  402cd0:	91000421 	add	x1, x1, #0x1
  402cd4:	f9044261 	str	x1, [x19, #2176]
  402cd8:	aa1703e1 	mov	x1, x23
  402cdc:	940119b9 	bl	4493c0 <__aarch64_swp4_rel>
  402ce0:	7100041f 	cmp	w0, #0x1
  402ce4:	5400094c 	b.gt	402e0c <arena_get2+0x2f8>
  402ce8:	9118c294 	add	x20, x20, #0x630
  402cec:	f8356ad3 	str	x19, [x22, x21]
  402cf0:	f9443a60 	ldr	x0, [x19, #2160]
  402cf4:	a94573fb 	ldp	x27, x28, [sp, #80]
  402cf8:	f9002280 	str	x0, [x20, #64]
  402cfc:	a9425bf5 	ldp	x21, x22, [sp, #32]
  402d00:	aa1303e0 	mov	x0, x19
  402d04:	a94153f3 	ldp	x19, x20, [sp, #16]
  402d08:	a94363f7 	ldp	x23, x24, [sp, #48]
  402d0c:	a9446bf9 	ldp	x25, x26, [sp, #64]
  402d10:	a8c67bfd 	ldp	x29, x30, [sp], #96
  402d14:	d65f03c0 	ret
  402d18:	9100a033 	add	x19, x1, #0x28
  402d1c:	52800000 	mov	w0, #0x0                   	// #0
  402d20:	aa1303e1 	mov	x1, x19
  402d24:	a90573fb 	stp	x27, x28, [sp, #80]
  402d28:	940119a6 	bl	4493c0 <__aarch64_swp4_rel>
  402d2c:	7100041f 	cmp	w0, #0x1
  402d30:	54fff66d 	b.le	402bfc <arena_get2+0xe8>
  402d34:	aa1303e0 	mov	x0, x19
  402d38:	97fffade 	bl	4018b0 <__lll_lock_wake_private>
  402d3c:	17ffffb0 	b	402bfc <arena_get2+0xe8>
  402d40:	d0000461 	adrp	x1, 490000 <.got.plt+0x18>
  402d44:	9103c021 	add	x1, x1, #0xf0
  402d48:	aa0103f3 	mov	x19, x1
  402d4c:	f9002001 	str	x1, [x0, #64]
  402d50:	17ffffbc 	b	402c40 <arena_get2+0x12c>
  402d54:	94001cef 	bl	40a110 <__get_nprocs_sched>
  402d58:	7100001f 	cmp	w0, #0x0
  402d5c:	540005ed 	b.le	402e18 <arena_get2+0x304>
  402d60:	531d7000 	lsl	w0, w0, #3
  402d64:	f9404679 	ldr	x25, [x19, #136]
  402d68:	93407c00 	sxtw	x0, w0
  402d6c:	d503201f 	nop
  402d70:	f9001b40 	str	x0, [x26, #48]
  402d74:	17ffffad 	b	402c28 <arena_get2+0x114>
  402d78:	aa1303e0 	mov	x0, x19
  402d7c:	97fffa91 	bl	4017c0 <__lll_lock_wait_private>
  402d80:	17ffff7b 	b	402b6c <arena_get2+0x58>
  402d84:	9118c280 	add	x0, x20, #0x630
  402d88:	9100a000 	add	x0, x0, #0x28
  402d8c:	97fffac9 	bl	4018b0 <__lll_lock_wake_private>
  402d90:	17ffff8a 	b	402bb8 <arena_get2+0xa4>
  402d94:	aa1703e0 	mov	x0, x23
  402d98:	97fffa8a 	bl	4017c0 <__lll_lock_wait_private>
  402d9c:	17ffffb6 	b	402c74 <arena_get2+0x160>
  402da0:	9118c280 	add	x0, x20, #0x630
  402da4:	f9443a73 	ldr	x19, [x19, #2160]
  402da8:	f9402000 	ldr	x0, [x0, #64]
  402dac:	eb00027f 	cmp	x19, x0
  402db0:	54fff481 	b.ne	402c40 <arena_get2+0x12c>  // b.any
  402db4:	eb13031f 	cmp	x24, x19
  402db8:	540011e0 	b.eq	402ff4 <arena_get2+0x4e0>  // b.none
  402dbc:	aa1303e2 	mov	x2, x19
  402dc0:	52800021 	mov	w1, #0x1                   	// #1
  402dc4:	52800000 	mov	w0, #0x0                   	// #0
  402dc8:	940118d2 	bl	449110 <__aarch64_cas4_acq>
  402dcc:	34fff440 	cbz	w0, 402c54 <arena_get2+0x140>
  402dd0:	aa1303e0 	mov	x0, x19
  402dd4:	97fffa7b 	bl	4017c0 <__lll_lock_wait_private>
  402dd8:	17ffff9f 	b	402c54 <arena_get2+0x140>
  402ddc:	9101437a 	add	x26, x27, #0x50
  402de0:	91000721 	add	x1, x25, #0x1
  402de4:	9102235c 	add	x28, x26, #0x88
  402de8:	aa1903e0 	mov	x0, x25
  402dec:	aa1c03e2 	mov	x2, x28
  402df0:	940118d8 	bl	449150 <__aarch64_cas8_acq>
  402df4:	eb19001f 	cmp	x0, x25
  402df8:	540002a0 	b.eq	402e4c <arena_get2+0x338>  // b.none
  402dfc:	9118c280 	add	x0, x20, #0x630
  402e00:	f9404759 	ldr	x25, [x26, #136]
  402e04:	f9401800 	ldr	x0, [x0, #48]
  402e08:	17ffff88 	b	402c28 <arena_get2+0x114>
  402e0c:	aa1703e0 	mov	x0, x23
  402e10:	97fffaa8 	bl	4018b0 <__lll_lock_wake_private>
  402e14:	17ffffb5 	b	402ce8 <arena_get2+0x1d4>
  402e18:	f9404679 	ldr	x25, [x19, #136]
  402e1c:	d2800201 	mov	x1, #0x10                  	// #16
  402e20:	aa0103e0 	mov	x0, x1
  402e24:	f9001b41 	str	x1, [x26, #48]
  402e28:	17ffff80 	b	402c28 <arena_get2+0x114>
  402e2c:	f0000263 	adrp	x3, 451000 <__PRETTY_FUNCTION__.1+0x1308>
  402e30:	b0000261 	adrp	x1, 44f000 <_Unwind_Find_FDE+0x430>
  402e34:	d0000260 	adrp	x0, 450000 <__PRETTY_FUNCTION__.1+0x308>
  402e38:	91040063 	add	x3, x3, #0x100
  402e3c:	91374021 	add	x1, x1, #0xdd0
  402e40:	910aa000 	add	x0, x0, #0x2a8
  402e44:	52805b42 	mov	w2, #0x2da                 	// #730
  402e48:	940026fa 	bl	40ca30 <__libc_assert_fail>
  402e4c:	f9400741 	ldr	x1, [x26, #8]
  402e50:	912362e0 	add	x0, x23, #0x8d8
  402e54:	97ffff18 	bl	402ab4 <new_heap>
  402e58:	aa0003f3 	mov	x19, x0
  402e5c:	b4000ac0 	cbz	x0, 402fb4 <arena_get2+0x4a0>
  402e60:	aa1303e0 	mov	x0, x19
  402e64:	91220261 	add	x1, x19, #0x880
  402e68:	9100c277 	add	x23, x19, #0x30
  402e6c:	f8090417 	str	x23, [x0], #144
  402e70:	a9010000 	stp	x0, x0, [x0, #16]
  402e74:	91004000 	add	x0, x0, #0x10
  402e78:	eb01001f 	cmp	x0, x1
  402e7c:	54ffffa1 	b.ne	402e70 <arena_get2+0x35c>  // b.any
  402e80:	d000047a 	adrp	x26, 490000 <.got.plt+0x18>
  402e84:	9103c340 	add	x0, x26, #0xf0
  402e88:	eb0002ff 	cmp	x23, x0
  402e8c:	540008c0 	b.eq	402fa4 <arena_get2+0x490>  // b.none
  402e90:	b94006e0 	ldr	w0, [x23, #4]
  402e94:	321f0000 	orr	w0, w0, #0x2
  402e98:	b90006e0 	str	w0, [x23, #4]
  402e9c:	9100e260 	add	x0, x19, #0x38
  402ea0:	b900001f 	str	wzr, [x0]
  402ea4:	91236262 	add	x2, x19, #0x8d8
  402ea8:	91232260 	add	x0, x19, #0x8c8
  402eac:	f2400c42 	ands	x2, x2, #0xf
  402eb0:	d2800021 	mov	x1, #0x1                   	// #1
  402eb4:	f9400a63 	ldr	x3, [x19, #16]
  402eb8:	cb020004 	sub	x4, x0, x2
  402ebc:	91004082 	add	x2, x4, #0x10
  402ec0:	f90442e1 	str	x1, [x23, #2176]
  402ec4:	9a801040 	csel	x0, x2, x0, ne	// ne = any
  402ec8:	8b030262 	add	x2, x19, x3
  402ecc:	cb000042 	sub	x2, x2, x0
  402ed0:	f90032e0 	str	x0, [x23, #96]
  402ed4:	f90446e3 	str	x3, [x23, #2184]
  402ed8:	aa010042 	orr	x2, x2, x1
  402edc:	f9044ae3 	str	x3, [x23, #2192]
  402ee0:	9118c299 	add	x25, x20, #0x630
  402ee4:	f9000402 	str	x2, [x0, #8]
  402ee8:	9100e339 	add	x25, x25, #0x38
  402eec:	f8756ad8 	ldr	x24, [x22, x21]
  402ef0:	f8356ad7 	str	x23, [x22, x21]
  402ef4:	b900327f 	str	wzr, [x19, #48]
  402ef8:	aa1903e2 	mov	x2, x25
  402efc:	52800000 	mov	w0, #0x0                   	// #0
  402f00:	94011884 	bl	449110 <__aarch64_cas4_acq>
  402f04:	350009a0 	cbnz	w0, 403038 <arena_get2+0x524>
  402f08:	9103c35a 	add	x26, x26, #0xf0
  402f0c:	f9443b40 	ldr	x0, [x26, #2160]
  402f10:	f9043ae0 	str	x0, [x23, #2160]
  402f14:	d5033bbf 	dmb	ish
  402f18:	9118c293 	add	x19, x20, #0x630
  402f1c:	f9043b57 	str	x23, [x26, #2160]
  402f20:	9100e273 	add	x19, x19, #0x38
  402f24:	52800000 	mov	w0, #0x0                   	// #0
  402f28:	aa1303e1 	mov	x1, x19
  402f2c:	94011925 	bl	4493c0 <__aarch64_swp4_rel>
  402f30:	7100041f 	cmp	w0, #0x1
  402f34:	540007cc 	b.gt	40302c <arena_get2+0x518>
  402f38:	9118c293 	add	x19, x20, #0x630
  402f3c:	52800021 	mov	w1, #0x1                   	// #1
  402f40:	9100a273 	add	x19, x19, #0x28
  402f44:	52800000 	mov	w0, #0x0                   	// #0
  402f48:	aa1303e2 	mov	x2, x19
  402f4c:	94011871 	bl	449110 <__aarch64_cas4_acq>
  402f50:	35000680 	cbnz	w0, 403020 <arena_get2+0x50c>
  402f54:	b40000b8 	cbz	x24, 402f68 <arena_get2+0x454>
  402f58:	f9444300 	ldr	x0, [x24, #2176]
  402f5c:	b40004a0 	cbz	x0, 402ff0 <arena_get2+0x4dc>
  402f60:	d1000400 	sub	x0, x0, #0x1
  402f64:	f9044300 	str	x0, [x24, #2176]
  402f68:	9118c293 	add	x19, x20, #0x630
  402f6c:	52800000 	mov	w0, #0x0                   	// #0
  402f70:	9100a273 	add	x19, x19, #0x28
  402f74:	aa1303e1 	mov	x1, x19
  402f78:	94011912 	bl	4493c0 <__aarch64_swp4_rel>
  402f7c:	7100041f 	cmp	w0, #0x1
  402f80:	5400068c 	b.gt	403050 <arena_get2+0x53c>
  402f84:	aa1703e2 	mov	x2, x23
  402f88:	52800021 	mov	w1, #0x1                   	// #1
  402f8c:	52800000 	mov	w0, #0x0                   	// #0
  402f90:	94011860 	bl	449110 <__aarch64_cas4_acq>
  402f94:	35000580 	cbnz	w0, 403044 <arena_get2+0x530>
  402f98:	a94573fb 	ldp	x27, x28, [sp, #80]
  402f9c:	aa1703f3 	mov	x19, x23
  402fa0:	17ffff0c 	b	402bd0 <arena_get2+0xbc>
  402fa4:	9118c280 	add	x0, x20, #0x630
  402fa8:	12800fe1 	mov	w1, #0xffffff80            	// #-128
  402fac:	39001001 	strb	w1, [x0, #4]
  402fb0:	17ffffbb 	b	402e9c <arena_get2+0x388>
  402fb4:	f9400741 	ldr	x1, [x26, #8]
  402fb8:	d2811b00 	mov	x0, #0x8d8                 	// #2264
  402fbc:	97fffebe 	bl	402ab4 <new_heap>
  402fc0:	aa0003f3 	mov	x19, x0
  402fc4:	b5fff4e0 	cbnz	x0, 402e60 <arena_get2+0x34c>
  402fc8:	f9404754 	ldr	x20, [x26, #136]
  402fcc:	aa1c03e2 	mov	x2, x28
  402fd0:	d1000681 	sub	x1, x20, #0x1
  402fd4:	aa1403e0 	mov	x0, x20
  402fd8:	9401185e 	bl	449150 <__aarch64_cas8_acq>
  402fdc:	eb00029f 	cmp	x20, x0
  402fe0:	54ffff41 	b.ne	402fc8 <arena_get2+0x4b4>  // b.any
  402fe4:	a94573fb 	ldp	x27, x28, [sp, #80]
  402fe8:	17fffefa 	b	402bd0 <arena_get2+0xbc>
  402fec:	a90573fb 	stp	x27, x28, [sp, #80]
  402ff0:	97fffba8 	bl	401e90 <detach_arena.part.0>
  402ff4:	f9443a73 	ldr	x19, [x19, #2160]
  402ff8:	17ffff71 	b	402dbc <arena_get2+0x2a8>
  402ffc:	f0000263 	adrp	x3, 451000 <__PRETTY_FUNCTION__.1+0x1308>
  403000:	90000261 	adrp	x1, 44f000 <_Unwind_Find_FDE+0x430>
  403004:	b0000260 	adrp	x0, 450000 <__PRETTY_FUNCTION__.1+0x308>
  403008:	9104a063 	add	x3, x3, #0x128
  40300c:	91374021 	add	x1, x1, #0xdd0
  403010:	910a2000 	add	x0, x0, #0x288
  403014:	52805802 	mov	w2, #0x2c0                 	// #704
  403018:	a90573fb 	stp	x27, x28, [sp, #80]
  40301c:	94002685 	bl	40ca30 <__libc_assert_fail>
  403020:	aa1303e0 	mov	x0, x19
  403024:	97fff9e7 	bl	4017c0 <__lll_lock_wait_private>
  403028:	17ffffcb 	b	402f54 <arena_get2+0x440>
  40302c:	aa1303e0 	mov	x0, x19
  403030:	97fffa20 	bl	4018b0 <__lll_lock_wake_private>
  403034:	17ffffc1 	b	402f38 <arena_get2+0x424>
  403038:	aa1903e0 	mov	x0, x25
  40303c:	97fff9e1 	bl	4017c0 <__lll_lock_wait_private>
  403040:	17ffffb2 	b	402f08 <arena_get2+0x3f4>
  403044:	aa1703e0 	mov	x0, x23
  403048:	97fff9de 	bl	4017c0 <__lll_lock_wait_private>
  40304c:	17ffffd3 	b	402f98 <arena_get2+0x484>
  403050:	aa1303e0 	mov	x0, x19
  403054:	97fffa17 	bl	4018b0 <__lll_lock_wake_private>
  403058:	17ffffcb 	b	402f84 <arena_get2+0x470>
  40305c:	d503201f 	nop

0000000000403060 <arena_get_retry>:
  403060:	a9bd7bfd 	stp	x29, x30, [sp, #-48]!
  403064:	910003fd 	mov	x29, sp
  403068:	a90153f3 	stp	x19, x20, [sp, #16]
  40306c:	aa0003f3 	mov	x19, x0
  403070:	b0000474 	adrp	x20, 490000 <.got.plt+0x18>
  403074:	9103c280 	add	x0, x20, #0xf0
  403078:	eb00027f 	cmp	x19, x0
  40307c:	54000200 	b.eq	4030bc <arena_get_retry+0x5c>  // b.none
  403080:	aa1303e1 	mov	x1, x19
  403084:	52800000 	mov	w0, #0x0                   	// #0
  403088:	940118ce 	bl	4493c0 <__aarch64_swp4_rel>
  40308c:	7100041f 	cmp	w0, #0x1
  403090:	5400036c 	b.gt	4030fc <arena_get_retry+0x9c>
  403094:	9103c293 	add	x19, x20, #0xf0
  403098:	52800021 	mov	w1, #0x1                   	// #1
  40309c:	aa1303e2 	mov	x2, x19
  4030a0:	52800000 	mov	w0, #0x0                   	// #0
  4030a4:	9401181b 	bl	449110 <__aarch64_cas4_acq>
  4030a8:	35000240 	cbnz	w0, 4030f0 <arena_get_retry+0x90>
  4030ac:	9103c280 	add	x0, x20, #0xf0
  4030b0:	a94153f3 	ldp	x19, x20, [sp, #16]
  4030b4:	a8c37bfd 	ldp	x29, x30, [sp], #48
  4030b8:	d65f03c0 	ret
  4030bc:	52800000 	mov	w0, #0x0                   	// #0
  4030c0:	f90013f5 	str	x21, [sp, #32]
  4030c4:	aa0103f5 	mov	x21, x1
  4030c8:	aa1303e1 	mov	x1, x19
  4030cc:	940118bd 	bl	4493c0 <__aarch64_swp4_rel>
  4030d0:	7100041f 	cmp	w0, #0x1
  4030d4:	540001ac 	b.gt	403108 <arena_get_retry+0xa8>
  4030d8:	9103c281 	add	x1, x20, #0xf0
  4030dc:	aa1503e0 	mov	x0, x21
  4030e0:	a94153f3 	ldp	x19, x20, [sp, #16]
  4030e4:	f94013f5 	ldr	x21, [sp, #32]
  4030e8:	a8c37bfd 	ldp	x29, x30, [sp], #48
  4030ec:	17fffe8a 	b	402b14 <arena_get2>
  4030f0:	aa1303e0 	mov	x0, x19
  4030f4:	97fff9b3 	bl	4017c0 <__lll_lock_wait_private>
  4030f8:	17ffffed 	b	4030ac <arena_get_retry+0x4c>
  4030fc:	aa1303e0 	mov	x0, x19
  403100:	97fff9ec 	bl	4018b0 <__lll_lock_wake_private>
  403104:	17ffffe4 	b	403094 <arena_get_retry+0x34>
  403108:	aa1303e0 	mov	x0, x19
  40310c:	97fff9e9 	bl	4018b0 <__lll_lock_wake_private>
  403110:	17fffff2 	b	4030d8 <arena_get_retry+0x78>

0000000000403114 <sysmalloc_mmap_fallback.constprop.0>:
  403114:	a9bc7bfd 	stp	x29, x30, [sp, #-64]!
  403118:	910003fd 	mov	x29, sp
  40311c:	a90363f7 	stp	x23, x24, [sp, #48]
  403120:	b0000478 	adrp	x24, 490000 <.got.plt+0x18>
  403124:	9103c306 	add	x6, x24, #0xf0
  403128:	aa0003f7 	mov	x23, x0
  40312c:	a90153f3 	stp	x19, x20, [sp, #16]
  403130:	b94004c0 	ldr	w0, [x6, #4]
  403134:	f94002f3 	ldr	x19, [x23]
  403138:	a9025bf5 	stp	x21, x22, [sp, #32]
  40313c:	2a0503f6 	mov	w22, w5
  403140:	aa1303f4 	mov	x20, x19
  403144:	370800e0 	tbnz	w0, #1, 403160 <sysmalloc_mmap_fallback.constprop.0+0x4c>
  403148:	8b130042 	add	x2, x2, x19
  40314c:	d1000493 	sub	x19, x4, #0x1
  403150:	8b020273 	add	x19, x19, x2
  403154:	cb0403e4 	neg	x4, x4
  403158:	8a040273 	and	x19, x19, x4
  40315c:	aa1303f4 	mov	x20, x19
  403160:	eb13007f 	cmp	x3, x19
  403164:	d2800015 	mov	x21, #0x0                   	// #0
  403168:	9a839273 	csel	x19, x19, x3, ls	// ls = plast
  40316c:	eb14007f 	cmp	x3, x20
  403170:	9a939294 	csel	x20, x20, x19, ls	// ls = plast
  403174:	eb14003f 	cmp	x1, x20
  403178:	54000242 	b.cs	4031c0 <sysmalloc_mmap_fallback.constprop.0+0xac>  // b.hs, b.nlast
  40317c:	aa1403e1 	mov	x1, x20
  403180:	52800443 	mov	w3, #0x22                  	// #34
  403184:	d2800005 	mov	x5, #0x0                   	// #0
  403188:	2a0302c3 	orr	w3, w22, w3
  40318c:	12800004 	mov	w4, #0xffffffff            	// #-1
  403190:	52800062 	mov	w2, #0x3                   	// #3
  403194:	d2800000 	mov	x0, #0x0                   	// #0
  403198:	94001c62 	bl	40a320 <__mmap64>
  40319c:	aa0003f5 	mov	x21, x0
  4031a0:	b100041f 	cmn	x0, #0x1
  4031a4:	540000e0 	b.eq	4031c0 <sysmalloc_mmap_fallback.constprop.0+0xac>  // b.none
  4031a8:	36900196 	tbz	w22, #18, 4031d8 <sysmalloc_mmap_fallback.constprop.0+0xc4>
  4031ac:	9103c301 	add	x1, x24, #0xf0
  4031b0:	b9400422 	ldr	w2, [x1, #4]
  4031b4:	321f0042 	orr	w2, w2, #0x2
  4031b8:	b9000422 	str	w2, [x1, #4]
  4031bc:	f90002f3 	str	x19, [x23]
  4031c0:	a94153f3 	ldp	x19, x20, [sp, #16]
  4031c4:	aa1503e0 	mov	x0, x21
  4031c8:	a9425bf5 	ldp	x21, x22, [sp, #32]
  4031cc:	a94363f7 	ldp	x23, x24, [sp, #48]
  4031d0:	a8c47bfd 	ldp	x29, x30, [sp], #64
  4031d4:	d65f03c0 	ret
  4031d8:	b0000460 	adrp	x0, 490000 <.got.plt+0x18>
  4031dc:	f9403c00 	ldr	x0, [x0, #120]
  4031e0:	d1000400 	sub	x0, x0, #0x1
  4031e4:	eb14001f 	cmp	x0, x20
  4031e8:	54fffe22 	b.cs	4031ac <sysmalloc_mmap_fallback.constprop.0+0x98>  // b.hs, b.nlast
  4031ec:	90000461 	adrp	x1, 48f000 <_IO_file_jumps+0x130>
  4031f0:	f947d821 	ldr	x1, [x1, #4016]
  4031f4:	aa1503e0 	mov	x0, x21
  4031f8:	f9400022 	ldr	x2, [x1]
  4031fc:	d1000441 	sub	x1, x2, #0x1
  403200:	ea150021 	ands	x1, x1, x21
  403204:	540000a1 	b.ne	403218 <sysmalloc_mmap_fallback.constprop.0+0x104>  // b.any
  403208:	aa1403e1 	mov	x1, x20
  40320c:	528001c2 	mov	w2, #0xe                   	// #14
  403210:	94001c3c 	bl	40a300 <__madvise>
  403214:	17ffffe6 	b	4031ac <sysmalloc_mmap_fallback.constprop.0+0x98>
  403218:	cb0203e2 	neg	x2, x2
  40321c:	8b010294 	add	x20, x20, x1
  403220:	8a150040 	and	x0, x2, x21
  403224:	17fffff9 	b	403208 <sysmalloc_mmap_fallback.constprop.0+0xf4>
  403228:	d503201f 	nop
  40322c:	d503201f 	nop

0000000000403230 <sysmalloc_mmap.isra.0>:
  403230:	a9bb7bfd 	stp	x29, x30, [sp, #-80]!
  403234:	910003fd 	mov	x29, sp
  403238:	a90153f3 	stp	x19, x20, [sp, #16]
  40323c:	91001c33 	add	x19, x1, #0x7
  403240:	8b000273 	add	x19, x19, x0
  403244:	cb0103e1 	neg	x1, x1
  403248:	a9025bf5 	stp	x21, x22, [sp, #32]
  40324c:	8a010273 	and	x19, x19, x1
  403250:	eb13001f 	cmp	x0, x19
  403254:	540000e3 	b.cc	403270 <sysmalloc_mmap.isra.0+0x40>  // b.lo, b.ul, b.last
  403258:	92800016 	mov	x22, #0xffffffffffffffff    	// #-1
  40325c:	aa1603e0 	mov	x0, x22
  403260:	a94153f3 	ldp	x19, x20, [sp, #16]
  403264:	a9425bf5 	ldp	x21, x22, [sp, #32]
  403268:	a8c57bfd 	ldp	x29, x30, [sp], #80
  40326c:	d65f03c0 	ret
  403270:	2a0203f4 	mov	w20, w2
  403274:	aa1303e1 	mov	x1, x19
  403278:	52800443 	mov	w3, #0x22                  	// #34
  40327c:	d2800005 	mov	x5, #0x0                   	// #0
  403280:	2a030043 	orr	w3, w2, w3
  403284:	12800004 	mov	w4, #0xffffffff            	// #-1
  403288:	52800062 	mov	w2, #0x3                   	// #3
  40328c:	d2800000 	mov	x0, #0x0                   	// #0
  403290:	94001c24 	bl	40a320 <__mmap64>
  403294:	aa0003f5 	mov	x21, x0
  403298:	b100041f 	cmn	x0, #0x1
  40329c:	54fffde0 	b.eq	403258 <sysmalloc_mmap.isra.0+0x28>  // b.none
  4032a0:	a90363f7 	stp	x23, x24, [sp, #48]
  4032a4:	f90023f9 	str	x25, [sp, #64]
  4032a8:	36900594 	tbz	w20, #18, 403358 <sysmalloc_mmap.isra.0+0x128>
  4032ac:	910042b6 	add	x22, x21, #0x10
  4032b0:	f2400ebf 	tst	x21, #0xf
  4032b4:	540007a1 	b.ne	4033a8 <sysmalloc_mmap.isra.0+0x178>  // b.any
  4032b8:	b27f0260 	orr	x0, x19, #0x2
  4032bc:	a90002bf 	stp	xzr, x0, [x21]
  4032c0:	b0000474 	adrp	x20, 490000 <.got.plt+0x18>
  4032c4:	91014298 	add	x24, x20, #0x50
  4032c8:	52800020 	mov	w0, #0x1                   	// #1
  4032cc:	9100f301 	add	x1, x24, #0x3c
  4032d0:	91011319 	add	x25, x24, #0x44
  4032d4:	940117db 	bl	449240 <__aarch64_ldadd4_relax>
  4032d8:	11000415 	add	w21, w0, #0x1
  4032dc:	b9404717 	ldr	w23, [x24, #68]
  4032e0:	6b1702bf 	cmp	w21, w23
  4032e4:	540000ed 	b.le	403300 <sysmalloc_mmap.isra.0+0xd0>
  4032e8:	aa1903e2 	mov	x2, x25
  4032ec:	2a1503e1 	mov	w1, w21
  4032f0:	2a1703e0 	mov	w0, w23
  4032f4:	94011787 	bl	449110 <__aarch64_cas4_acq>
  4032f8:	6b17001f 	cmp	w0, w23
  4032fc:	54ffff01 	b.ne	4032dc <sysmalloc_mmap.isra.0+0xac>  // b.any
  403300:	91014294 	add	x20, x20, #0x50
  403304:	aa1303e0 	mov	x0, x19
  403308:	91014281 	add	x1, x20, #0x50
  40330c:	91016297 	add	x23, x20, #0x58
  403310:	940117e4 	bl	4492a0 <__aarch64_ldadd8_relax>
  403314:	8b130013 	add	x19, x0, x19
  403318:	f9402e95 	ldr	x21, [x20, #88]
  40331c:	eb15027f 	cmp	x19, x21
  403320:	540000e9 	b.ls	40333c <sysmalloc_mmap.isra.0+0x10c>  // b.plast
  403324:	aa1703e2 	mov	x2, x23
  403328:	aa1303e1 	mov	x1, x19
  40332c:	aa1503e0 	mov	x0, x21
  403330:	94011788 	bl	449150 <__aarch64_cas8_acq>
  403334:	eb15001f 	cmp	x0, x21
  403338:	54ffff01 	b.ne	403318 <sysmalloc_mmap.isra.0+0xe8>  // b.any
  40333c:	a94153f3 	ldp	x19, x20, [sp, #16]
  403340:	aa1603e0 	mov	x0, x22
  403344:	a9425bf5 	ldp	x21, x22, [sp, #32]
  403348:	a94363f7 	ldp	x23, x24, [sp, #48]
  40334c:	f94023f9 	ldr	x25, [sp, #64]
  403350:	a8c57bfd 	ldp	x29, x30, [sp], #80
  403354:	d65f03c0 	ret
  403358:	b0000460 	adrp	x0, 490000 <.got.plt+0x18>
  40335c:	f9403c00 	ldr	x0, [x0, #120]
  403360:	d1000400 	sub	x0, x0, #0x1
  403364:	eb13001f 	cmp	x0, x19
  403368:	54fffa22 	b.cs	4032ac <sysmalloc_mmap.isra.0+0x7c>  // b.hs, b.nlast
  40336c:	90000462 	adrp	x2, 48f000 <_IO_file_jumps+0x130>
  403370:	f947d842 	ldr	x2, [x2, #4016]
  403374:	aa1303e1 	mov	x1, x19
  403378:	aa1503e0 	mov	x0, x21
  40337c:	f9400043 	ldr	x3, [x2]
  403380:	d1000462 	sub	x2, x3, #0x1
  403384:	ea150042 	ands	x2, x2, x21
  403388:	54000081 	b.ne	403398 <sysmalloc_mmap.isra.0+0x168>  // b.any
  40338c:	528001c2 	mov	w2, #0xe                   	// #14
  403390:	94001bdc 	bl	40a300 <__madvise>
  403394:	17ffffc6 	b	4032ac <sysmalloc_mmap.isra.0+0x7c>
  403398:	cb0303e3 	neg	x3, x3
  40339c:	8b020261 	add	x1, x19, x2
  4033a0:	8a150060 	and	x0, x3, x21
  4033a4:	17fffffa 	b	40338c <sysmalloc_mmap.isra.0+0x15c>
  4033a8:	d0000263 	adrp	x3, 451000 <__PRETTY_FUNCTION__.1+0x1308>
  4033ac:	90000261 	adrp	x1, 44f000 <_Unwind_Find_FDE+0x430>
  4033b0:	b0000260 	adrp	x0, 450000 <__PRETTY_FUNCTION__.1+0x308>
  4033b4:	91034063 	add	x3, x3, #0xd0
  4033b8:	91362021 	add	x1, x1, #0xd88
  4033bc:	910b2000 	add	x0, x0, #0x2c8
  4033c0:	528131a2 	mov	w2, #0x98d                 	// #2445
  4033c4:	9400259b 	bl	40ca30 <__libc_assert_fail>
  4033c8:	d503201f 	nop
  4033cc:	d503201f 	nop

00000000004033d0 <systrim.constprop.0>:
  4033d0:	a9bc7bfd 	stp	x29, x30, [sp, #-64]!
  4033d4:	910003fd 	mov	x29, sp
  4033d8:	a9025bf5 	stp	x21, x22, [sp, #32]
  4033dc:	b0000475 	adrp	x21, 490000 <.got.plt+0x18>
  4033e0:	9103c2a1 	add	x1, x21, #0xf0
  4033e4:	a90153f3 	stp	x19, x20, [sp, #16]
  4033e8:	f9403021 	ldr	x1, [x1, #96]
  4033ec:	f9400434 	ldr	x20, [x1, #8]
  4033f0:	927df294 	and	x20, x20, #0xfffffffffffffff8
  4033f4:	d1008681 	sub	x1, x20, #0x21
  4033f8:	eb00003f 	cmp	x1, x0
  4033fc:	54000169 	b.ls	403428 <systrim.constprop.0+0x58>  // b.plast
  403400:	b0000462 	adrp	x2, 490000 <.got.plt+0x18>
  403404:	cb000021 	sub	x1, x1, x0
  403408:	f9403c40 	ldr	x0, [x2, #120]
  40340c:	b5000080 	cbnz	x0, 40341c <systrim.constprop.0+0x4c>
  403410:	90000460 	adrp	x0, 48f000 <_IO_file_jumps+0x130>
  403414:	f947d800 	ldr	x0, [x0, #4016]
  403418:	f9400000 	ldr	x0, [x0]
  40341c:	cb0003e0 	neg	x0, x0
  403420:	8a010013 	and	x19, x0, x1
  403424:	b50000d3 	cbnz	x19, 40343c <systrim.constprop.0+0x6c>
  403428:	52800000 	mov	w0, #0x0                   	// #0
  40342c:	a94153f3 	ldp	x19, x20, [sp, #16]
  403430:	a9425bf5 	ldp	x21, x22, [sp, #32]
  403434:	a8c47bfd 	ldp	x29, x30, [sp], #64
  403438:	d65f03c0 	ret
  40343c:	f9001bf7 	str	x23, [sp, #48]
  403440:	f0000497 	adrp	x23, 496000 <__pthread_keys+0x39d0>
  403444:	9118c2e0 	add	x0, x23, #0x630
  403448:	39404000 	ldrb	w0, [x0, #16]
  40344c:	37000160 	tbnz	w0, #0, 403478 <systrim.constprop.0+0xa8>
  403450:	d2800000 	mov	x0, #0x0                   	// #0
  403454:	94001be3 	bl	40a3e0 <__sbrk>
  403458:	aa0003f6 	mov	x22, x0
  40345c:	9103c2a0 	add	x0, x21, #0xf0
  403460:	b10006df 	cmn	x22, #0x1
  403464:	54000400 	b.eq	4034e4 <systrim.constprop.0+0x114>  // b.none
  403468:	f9403000 	ldr	x0, [x0, #96]
  40346c:	8b140000 	add	x0, x0, x20
  403470:	eb0002df 	cmp	x22, x0
  403474:	54000060 	b.eq	403480 <systrim.constprop.0+0xb0>  // b.none
  403478:	f9401bf7 	ldr	x23, [sp, #48]
  40347c:	17ffffeb 	b	403428 <systrim.constprop.0+0x58>
  403480:	9118c2f7 	add	x23, x23, #0x630
  403484:	394042e0 	ldrb	w0, [x23, #16]
  403488:	3707ff80 	tbnz	w0, #0, 403478 <systrim.constprop.0+0xa8>
  40348c:	cb1303e0 	neg	x0, x19
  403490:	94001bd4 	bl	40a3e0 <__sbrk>
  403494:	394042e0 	ldrb	w0, [x23, #16]
  403498:	3707ff00 	tbnz	w0, #0, 403478 <systrim.constprop.0+0xa8>
  40349c:	d2800000 	mov	x0, #0x0                   	// #0
  4034a0:	94001bd0 	bl	40a3e0 <__sbrk>
  4034a4:	d1000401 	sub	x1, x0, #0x1
  4034a8:	b1000c3f 	cmn	x1, #0x3
  4034ac:	54fffe68 	b.hi	403478 <systrim.constprop.0+0xa8>  // b.pmore
  4034b0:	eb0002d6 	subs	x22, x22, x0
  4034b4:	54fffe20 	b.eq	403478 <systrim.constprop.0+0xa8>  // b.none
  4034b8:	9103c2a2 	add	x2, x21, #0xf0
  4034bc:	cb160281 	sub	x1, x20, x22
  4034c0:	f9401bf7 	ldr	x23, [sp, #48]
  4034c4:	b2400021 	orr	x1, x1, #0x1
  4034c8:	f9403044 	ldr	x4, [x2, #96]
  4034cc:	52800020 	mov	w0, #0x1                   	// #1
  4034d0:	f9444443 	ldr	x3, [x2, #2184]
  4034d4:	cb160063 	sub	x3, x3, x22
  4034d8:	f9044443 	str	x3, [x2, #2184]
  4034dc:	f9000481 	str	x1, [x4, #8]
  4034e0:	17ffffd3 	b	40342c <systrim.constprop.0+0x5c>
  4034e4:	f9403000 	ldr	x0, [x0, #96]
  4034e8:	d2800016 	mov	x22, #0x0                   	// #0
  4034ec:	17ffffe0 	b	40346c <systrim.constprop.0+0x9c>

00000000004034f0 <_int_free_maybe_consolidate.part.0>:
  4034f0:	a9b87bfd 	stp	x29, x30, [sp, #-128]!
  4034f4:	91002001 	add	x1, x0, #0x8
  4034f8:	910003fd 	mov	x29, sp
  4034fc:	a90153f3 	stp	x19, x20, [sp, #16]
  403500:	aa0003f3 	mov	x19, x0
  403504:	b9400021 	ldr	w1, [x1]
  403508:	35001001 	cbnz	w1, 403708 <_int_free_maybe_consolidate.part.0+0x218>
  40350c:	b0000460 	adrp	x0, 490000 <.got.plt+0x18>
  403510:	9103c000 	add	x0, x0, #0xf0
  403514:	eb00027f 	cmp	x19, x0
  403518:	54001020 	b.eq	40371c <_int_free_maybe_consolidate.part.0+0x22c>  // b.none
  40351c:	b0000460 	adrp	x0, 490000 <.got.plt+0x18>
  403520:	91014000 	add	x0, x0, #0x50
  403524:	a9025bf5 	stp	x21, x22, [sp, #32]
  403528:	f9401800 	ldr	x0, [x0, #48]
  40352c:	a90363f7 	stp	x23, x24, [sp, #48]
  403530:	a9046bf9 	stp	x25, x26, [sp, #64]
  403534:	a90573fb 	stp	x27, x28, [sp, #80]
  403538:	f9403278 	ldr	x24, [x19, #96]
  40353c:	b4000aa0 	cbz	x0, 403690 <_int_free_maybe_consolidate.part.0+0x1a0>
  403540:	d37ef41c 	lsl	x28, x0, #2
  403544:	cb000be0 	neg	x0, x0, lsl #2
  403548:	8a000318 	and	x24, x24, x0
  40354c:	f940031b 	ldr	x27, [x24]
  403550:	eb1b027f 	cmp	x19, x27
  403554:	54001d21 	b.ne	4038f8 <_int_free_maybe_consolidate.part.0+0x408>  // b.any
  403558:	b0000460 	adrp	x0, 490000 <.got.plt+0x18>
  40355c:	91014001 	add	x1, x0, #0x50
  403560:	f9403379 	ldr	x25, [x27, #96]
  403564:	9100c300 	add	x0, x24, #0x30
  403568:	f9400421 	ldr	x1, [x1, #8]
  40356c:	f90037e1 	str	x1, [sp, #104]
  403570:	eb00033f 	cmp	x25, x0
  403574:	54001501 	b.ne	403814 <_int_free_maybe_consolidate.part.0+0x324>  // b.any
  403578:	f0000494 	adrp	x20, 496000 <__pthread_keys+0x39d0>
  40357c:	91008037 	add	x23, x1, #0x20
  403580:	9118c294 	add	x20, x20, #0x630
  403584:	14000010 	b	4035c4 <_int_free_maybe_consolidate.part.0+0xd4>
  403588:	f9401300 	ldr	x0, [x24, #32]
  40358c:	8b130321 	add	x1, x25, x19
  403590:	d1000400 	sub	x0, x0, #0x1
  403594:	ea00003f 	tst	x1, x0
  403598:	54001821 	b.ne	40389c <_int_free_maybe_consolidate.part.0+0x3ac>  // b.any
  40359c:	f9400b00 	ldr	x0, [x24, #16]
  4035a0:	8b000300 	add	x0, x24, x0
  4035a4:	eb00003f 	cmp	x1, x0
  4035a8:	540013a1 	b.ne	40381c <_int_free_maybe_consolidate.part.0+0x32c>  // b.any
  4035ac:	f9003379 	str	x25, [x27, #96]
  4035b0:	b2400273 	orr	x19, x19, #0x1
  4035b4:	9100c300 	add	x0, x24, #0x30
  4035b8:	f9000733 	str	x19, [x25, #8]
  4035bc:	eb00033f 	cmp	x25, x0
  4035c0:	54000761 	b.ne	4036ac <_int_free_maybe_consolidate.part.0+0x1bc>  // b.any
  4035c4:	aa1803e0 	mov	x0, x24
  4035c8:	f9400718 	ldr	x24, [x24, #8]
  4035cc:	f9400b02 	ldr	x2, [x24, #16]
  4035d0:	d1004043 	sub	x3, x2, #0x10
  4035d4:	8b030304 	add	x4, x24, x3
  4035d8:	92400c84 	and	x4, x4, #0xf
  4035dc:	cb040063 	sub	x3, x3, x4
  4035e0:	8b030316 	add	x22, x24, x3
  4035e4:	f94006c1 	ldr	x1, [x22, #8]
  4035e8:	f100043f 	cmp	x1, #0x1
  4035ec:	54001281 	b.ne	40383c <_int_free_maybe_consolidate.part.0+0x34c>  // b.any
  4035f0:	f8636b1a 	ldr	x26, [x24, x3]
  4035f4:	cb1a02d5 	sub	x21, x22, x26
  4035f8:	cb1a03fa 	neg	x26, x26
  4035fc:	f94006a1 	ldr	x1, [x21, #8]
  403600:	927df033 	and	x19, x1, #0xfffffffffffffff8
  403604:	8b040273 	add	x19, x19, x4
  403608:	91003e64 	add	x4, x19, #0xf
  40360c:	91004273 	add	x19, x19, #0x10
  403610:	f100f89f 	cmp	x4, #0x3e
  403614:	54001248 	b.hi	40385c <_int_free_maybe_consolidate.part.0+0x36c>  // b.pmore
  403618:	37000061 	tbnz	w1, #0, 403624 <_int_free_maybe_consolidate.part.0+0x134>
  40361c:	f87a6ac1 	ldr	x1, [x22, x26]
  403620:	8b010273 	add	x19, x19, x1
  403624:	f100027f 	cmp	x19, #0x0
  403628:	fa53c380 	ccmp	x28, x19, #0x0, gt
  40362c:	54001289 	b.ls	40387c <_int_free_maybe_consolidate.part.0+0x38c>  // b.plast
  403630:	f9401001 	ldr	x1, [x0, #32]
  403634:	cb020382 	sub	x2, x28, x2
  403638:	8b130042 	add	x2, x2, x19
  40363c:	8b0102e1 	add	x1, x23, x1
  403640:	eb01005f 	cmp	x2, x1
  403644:	54000303 	b.cc	4036a4 <_int_free_maybe_consolidate.part.0+0x1b4>  // b.lo, b.ul, b.last
  403648:	f9400806 	ldr	x6, [x0, #16]
  40364c:	8b1c0001 	add	x1, x0, x28
  403650:	f9444762 	ldr	x2, [x27, #2184]
  403654:	f9400e84 	ldr	x4, [x20, #24]
  403658:	cb060042 	sub	x2, x2, x6
  40365c:	f9044762 	str	x2, [x27, #2184]
  403660:	eb01009f 	cmp	x4, x1
  403664:	540001c0 	b.eq	40369c <_int_free_maybe_consolidate.part.0+0x1ac>  // b.none
  403668:	aa1c03e1 	mov	x1, x28
  40366c:	94001b55 	bl	40a3c0 <__munmap>
  403670:	f94006a0 	ldr	x0, [x21, #8]
  403674:	aa1503f9 	mov	x25, x21
  403678:	3707f880 	tbnz	w0, #0, 403588 <_int_free_maybe_consolidate.part.0+0x98>
  40367c:	f87a6ac0 	ldr	x0, [x22, x26]
  403680:	cb0002b9 	sub	x25, x21, x0
  403684:	aa1903e0 	mov	x0, x25
  403688:	97fffb3a 	bl	402370 <unlink_chunk.isra.0>
  40368c:	17ffffbf 	b	403588 <_int_free_maybe_consolidate.part.0+0x98>
  403690:	b26697e0 	mov	x0, #0xfffffffffc000000    	// #-67108864
  403694:	d2a0801c 	mov	x28, #0x4000000             	// #67108864
  403698:	17ffffac 	b	403548 <_int_free_maybe_consolidate.part.0+0x58>
  40369c:	f9000e9f 	str	xzr, [x20, #24]
  4036a0:	17fffff2 	b	403668 <_int_free_maybe_consolidate.part.0+0x178>
  4036a4:	f9400733 	ldr	x19, [x25, #8]
  4036a8:	aa0003f8 	mov	x24, x0
  4036ac:	b0000460 	adrp	x0, 490000 <.got.plt+0x18>
  4036b0:	927df273 	and	x19, x19, #0xfffffffffffffff8
  4036b4:	b0000461 	adrp	x1, 490000 <.got.plt+0x18>
  4036b8:	91014037 	add	x23, x1, #0x50
  4036bc:	f9402800 	ldr	x0, [x0, #80]
  4036c0:	eb00027f 	cmp	x19, x0
  4036c4:	54000143 	b.cc	4036ec <_int_free_maybe_consolidate.part.0+0x1fc>  // b.lo, b.ul, b.last
  4036c8:	f94037e2 	ldr	x2, [sp, #104]
  4036cc:	f1008660 	subs	x0, x19, #0x21
  4036d0:	fa405042 	ccmp	x2, x0, #0x2, pl	// pl = nfrst
  4036d4:	540000c2 	b.cs	4036ec <_int_free_maybe_consolidate.part.0+0x1fc>  // b.hs, b.nlast
  4036d8:	f9401301 	ldr	x1, [x24, #32]
  4036dc:	cb020000 	sub	x0, x0, x2
  4036e0:	cb0103e1 	neg	x1, x1
  4036e4:	ea000034 	ands	x20, x1, x0
  4036e8:	54000321 	b.ne	40374c <_int_free_maybe_consolidate.part.0+0x25c>  // b.any
  4036ec:	a9425bf5 	ldp	x21, x22, [sp, #32]
  4036f0:	a94363f7 	ldp	x23, x24, [sp, #48]
  4036f4:	a9446bf9 	ldp	x25, x26, [sp, #64]
  4036f8:	a94573fb 	ldp	x27, x28, [sp, #80]
  4036fc:	a94153f3 	ldp	x19, x20, [sp, #16]
  403700:	a8c87bfd 	ldp	x29, x30, [sp], #128
  403704:	d65f03c0 	ret
  403708:	97fffb4e 	bl	402440 <malloc_consolidate>
  40370c:	b0000460 	adrp	x0, 490000 <.got.plt+0x18>
  403710:	9103c000 	add	x0, x0, #0xf0
  403714:	eb00027f 	cmp	x19, x0
  403718:	54fff021 	b.ne	40351c <_int_free_maybe_consolidate.part.0+0x2c>  // b.any
  40371c:	f9403262 	ldr	x2, [x19, #96]
  403720:	b0000460 	adrp	x0, 490000 <.got.plt+0x18>
  403724:	91014003 	add	x3, x0, #0x50
  403728:	f9402801 	ldr	x1, [x0, #80]
  40372c:	f9400440 	ldr	x0, [x2, #8]
  403730:	927df000 	and	x0, x0, #0xfffffffffffffff8
  403734:	eb01001f 	cmp	x0, x1
  403738:	54fffe23 	b.cc	4036fc <_int_free_maybe_consolidate.part.0+0x20c>  // b.lo, b.ul, b.last
  40373c:	f9400460 	ldr	x0, [x3, #8]
  403740:	a94153f3 	ldp	x19, x20, [sp, #16]
  403744:	a8c87bfd 	ldp	x29, x30, [sp], #128
  403748:	17ffff22 	b	4033d0 <systrim.constprop.0>
  40374c:	f9400b16 	ldr	x22, [x24, #16]
  403750:	cb1402d6 	sub	x22, x22, x20
  403754:	f100bedf 	cmp	x22, #0x2f
  403758:	54fffcad 	b.le	4036ec <_int_free_maybe_consolidate.part.0+0x1fc>
  40375c:	b94092e0 	ldr	w0, [x23, #144]
  403760:	7100001f 	cmp	w0, #0x0
  403764:	5400028b 	b.lt	4037b4 <_int_free_maybe_consolidate.part.0+0x2c4>  // b.tstop
  403768:	54000401 	b.ne	4037e8 <_int_free_maybe_consolidate.part.0+0x2f8>  // b.any
  40376c:	aa1403e1 	mov	x1, x20
  403770:	8b160300 	add	x0, x24, x22
  403774:	52800082 	mov	w2, #0x4                   	// #4
  403778:	94001ae2 	bl	40a300 <__madvise>
  40377c:	f9444760 	ldr	x0, [x27, #2184]
  403780:	f9000b16 	str	x22, [x24, #16]
  403784:	a9425bf5 	ldp	x21, x22, [sp, #32]
  403788:	cb140000 	sub	x0, x0, x20
  40378c:	a94363f7 	ldp	x23, x24, [sp, #48]
  403790:	cb140273 	sub	x19, x19, x20
  403794:	f9044760 	str	x0, [x27, #2184]
  403798:	b2400260 	orr	x0, x19, #0x1
  40379c:	a94573fb 	ldp	x27, x28, [sp, #80]
  4037a0:	f9000720 	str	x0, [x25, #8]
  4037a4:	a94153f3 	ldp	x19, x20, [sp, #16]
  4037a8:	a9446bf9 	ldp	x25, x26, [sp, #64]
  4037ac:	a8c87bfd 	ldp	x29, x30, [sp], #128
  4037b0:	d65f03c0 	ret
  4037b4:	90000460 	adrp	x0, 48f000 <_IO_file_jumps+0x130>
  4037b8:	f946b800 	ldr	x0, [x0, #3440]
  4037bc:	b940001a 	ldr	w26, [x0]
  4037c0:	b90092fa 	str	w26, [x23, #144]
  4037c4:	3500013a 	cbnz	w26, 4037e8 <_int_free_maybe_consolidate.part.0+0x2f8>
  4037c8:	b0000260 	adrp	x0, 450000 <__PRETTY_FUNCTION__.1+0x308>
  4037cc:	52a00101 	mov	w1, #0x80000               	// #524288
  4037d0:	9110a000 	add	x0, x0, #0x428
  4037d4:	9400190b 	bl	409c00 <__open64_nocancel>
  4037d8:	2a0003fc 	mov	w28, w0
  4037dc:	36f80700 	tbz	w0, #31, 4038bc <_int_free_maybe_consolidate.part.0+0x3cc>
  4037e0:	b94092e0 	ldr	w0, [x23, #144]
  4037e4:	34fffc40 	cbz	w0, 40376c <_int_free_maybe_consolidate.part.0+0x27c>
  4037e8:	aa1403e1 	mov	x1, x20
  4037ec:	8b160300 	add	x0, x24, x22
  4037f0:	d2800005 	mov	x5, #0x0                   	// #0
  4037f4:	12800004 	mov	w4, #0xffffffff            	// #-1
  4037f8:	52800643 	mov	w3, #0x32                  	// #50
  4037fc:	52800002 	mov	w2, #0x0                   	// #0
  403800:	94001ac8 	bl	40a320 <__mmap64>
  403804:	b100041f 	cmn	x0, #0x1
  403808:	54fff720 	b.eq	4036ec <_int_free_maybe_consolidate.part.0+0x1fc>  // b.none
  40380c:	f9000f16 	str	x22, [x24, #24]
  403810:	17ffffdb 	b	40377c <_int_free_maybe_consolidate.part.0+0x28c>
  403814:	f9400733 	ldr	x19, [x25, #8]
  403818:	17ffffa5 	b	4036ac <_int_free_maybe_consolidate.part.0+0x1bc>
  40381c:	d0000263 	adrp	x3, 451000 <__PRETTY_FUNCTION__.1+0x1308>
  403820:	90000261 	adrp	x1, 44f000 <_Unwind_Find_FDE+0x430>
  403824:	b0000260 	adrp	x0, 450000 <__PRETTY_FUNCTION__.1+0x308>
  403828:	91028063 	add	x3, x3, #0xa0
  40382c:	91374021 	add	x1, x1, #0xdd0
  403830:	910fc000 	add	x0, x0, #0x3f0
  403834:	528046a2 	mov	w2, #0x235                 	// #565
  403838:	9400247e 	bl	40ca30 <__libc_assert_fail>
  40383c:	d0000263 	adrp	x3, 451000 <__PRETTY_FUNCTION__.1+0x1308>
  403840:	90000261 	adrp	x1, 44f000 <_Unwind_Find_FDE+0x430>
  403844:	b0000260 	adrp	x0, 450000 <__PRETTY_FUNCTION__.1+0x308>
  403848:	91028063 	add	x3, x3, #0xa0
  40384c:	91374021 	add	x1, x1, #0xdd0
  403850:	910c8000 	add	x0, x0, #0x320
  403854:	528043c2 	mov	w2, #0x21e                 	// #542
  403858:	94002476 	bl	40ca30 <__libc_assert_fail>
  40385c:	d0000263 	adrp	x3, 451000 <__PRETTY_FUNCTION__.1+0x1308>
  403860:	90000261 	adrp	x1, 44f000 <_Unwind_Find_FDE+0x430>
  403864:	b0000260 	adrp	x0, 450000 <__PRETTY_FUNCTION__.1+0x308>
  403868:	91028063 	add	x3, x3, #0xa0
  40386c:	91374021 	add	x1, x1, #0xdd0
  403870:	910d4000 	add	x0, x0, #0x350
  403874:	52804422 	mov	w2, #0x221                 	// #545
  403878:	9400246e 	bl	40ca30 <__libc_assert_fail>
  40387c:	d0000263 	adrp	x3, 451000 <__PRETTY_FUNCTION__.1+0x1308>
  403880:	90000261 	adrp	x1, 44f000 <_Unwind_Find_FDE+0x430>
  403884:	b0000260 	adrp	x0, 450000 <__PRETTY_FUNCTION__.1+0x308>
  403888:	91028063 	add	x3, x3, #0xa0
  40388c:	91374021 	add	x1, x1, #0xdd0
  403890:	910e0000 	add	x0, x0, #0x380
  403894:	52804482 	mov	w2, #0x224                 	// #548
  403898:	94002466 	bl	40ca30 <__libc_assert_fail>
  40389c:	d0000263 	adrp	x3, 451000 <__PRETTY_FUNCTION__.1+0x1308>
  4038a0:	90000261 	adrp	x1, 44f000 <_Unwind_Find_FDE+0x430>
  4038a4:	b0000260 	adrp	x0, 450000 <__PRETTY_FUNCTION__.1+0x308>
  4038a8:	91028063 	add	x3, x3, #0xa0
  4038ac:	91374021 	add	x1, x1, #0xdd0
  4038b0:	910ea000 	add	x0, x0, #0x3a8
  4038b4:	52804662 	mov	w2, #0x233                 	// #563
  4038b8:	9400245e 	bl	40ca30 <__libc_assert_fail>
  4038bc:	9101ffe1 	add	x1, sp, #0x7f
  4038c0:	d2800022 	mov	x2, #0x1                   	// #1
  4038c4:	940018f7 	bl	409ca0 <__read_nocancel>
  4038c8:	f100001f 	cmp	x0, #0x0
  4038cc:	5400008d 	b.le	4038dc <_int_free_maybe_consolidate.part.0+0x3ec>
  4038d0:	3941ffe0 	ldrb	w0, [sp, #127]
  4038d4:	7100c81f 	cmp	w0, #0x32
  4038d8:	1a9f17fa 	cset	w26, eq	// eq = none
  4038dc:	b0000460 	adrp	x0, 490000 <.got.plt+0x18>
  4038e0:	91014015 	add	x21, x0, #0x50
  4038e4:	2a1c03e0 	mov	w0, w28
  4038e8:	b90092ba 	str	w26, [x21, #144]
  4038ec:	94001865 	bl	409a80 <__close_nocancel>
  4038f0:	b94092a0 	ldr	w0, [x21, #144]
  4038f4:	17ffffbc 	b	4037e4 <_int_free_maybe_consolidate.part.0+0x2f4>
  4038f8:	d0000263 	adrp	x3, 451000 <__PRETTY_FUNCTION__.1+0x1308>
  4038fc:	90000261 	adrp	x1, 44f000 <_Unwind_Find_FDE+0x430>
  403900:	b0000260 	adrp	x0, 450000 <__PRETTY_FUNCTION__.1+0x308>
  403904:	9102c063 	add	x3, x3, #0xb0
  403908:	91362021 	add	x1, x1, #0xd88
  40390c:	910c2000 	add	x0, x0, #0x308
  403910:	52825662 	mov	w2, #0x12b3                	// #4787
  403914:	94002447 	bl	40ca30 <__libc_assert_fail>
  403918:	d503201f 	nop
  40391c:	d503201f 	nop

0000000000403920 <_int_free_merge_chunk>:
  403920:	a9bc7bfd 	stp	x29, x30, [sp, #-64]!
  403924:	910003fd 	mov	x29, sp
  403928:	a90153f3 	stp	x19, x20, [sp, #16]
  40392c:	aa0003f4 	mov	x20, x0
  403930:	f9403000 	ldr	x0, [x0, #96]
  403934:	a9025bf5 	stp	x21, x22, [sp, #32]
  403938:	8b020036 	add	x22, x1, x2
  40393c:	f9001bf7 	str	x23, [sp, #48]
  403940:	eb01001f 	cmp	x0, x1
  403944:	54000640 	b.eq	403a0c <_int_free_merge_chunk+0xec>  // b.none
  403948:	aa0103f3 	mov	x19, x1
  40394c:	b9400681 	ldr	w1, [x20, #4]
  403950:	aa0203f5 	mov	x21, x2
  403954:	36080621 	tbz	w1, #1, 403a18 <_int_free_merge_chunk+0xf8>
  403958:	f94006c0 	ldr	x0, [x22, #8]
  40395c:	360006e0 	tbz	w0, #0, 403a38 <_int_free_merge_chunk+0x118>
  403960:	927df017 	and	x23, x0, #0xfffffffffffffff8
  403964:	f100401f 	cmp	x0, #0x10
  403968:	540004c9 	b.ls	403a00 <_int_free_merge_chunk+0xe0>  // b.plast
  40396c:	f9444680 	ldr	x0, [x20, #2184]
  403970:	eb17001f 	cmp	x0, x23
  403974:	54000469 	b.ls	403a00 <_int_free_merge_chunk+0xe0>  // b.plast
  403978:	f0000480 	adrp	x0, 496000 <__pthread_keys+0x39d0>
  40397c:	b9463001 	ldr	w1, [x0, #1584]
  403980:	35000621 	cbnz	w1, 403a44 <_int_free_merge_chunk+0x124>
  403984:	f9400660 	ldr	x0, [x19, #8]
  403988:	37000140 	tbnz	w0, #0, 4039b0 <_int_free_merge_chunk+0x90>
  40398c:	f9400260 	ldr	x0, [x19]
  403990:	cb000273 	sub	x19, x19, x0
  403994:	8b0002b5 	add	x21, x21, x0
  403998:	f9400661 	ldr	x1, [x19, #8]
  40399c:	927df021 	and	x1, x1, #0xfffffffffffffff8
  4039a0:	eb00003f 	cmp	x1, x0
  4039a4:	54000581 	b.ne	403a54 <_int_free_merge_chunk+0x134>  // b.any
  4039a8:	aa1303e0 	mov	x0, x19
  4039ac:	97fffa71 	bl	402370 <unlink_chunk.isra.0>
  4039b0:	aa1303e1 	mov	x1, x19
  4039b4:	aa1703e4 	mov	x4, x23
  4039b8:	aa1603e3 	mov	x3, x22
  4039bc:	aa1503e2 	mov	x2, x21
  4039c0:	aa1403e0 	mov	x0, x20
  4039c4:	97fffb03 	bl	4025d0 <_int_free_create_chunk>
  4039c8:	d29fffe1 	mov	x1, #0xffff                	// #65535
  4039cc:	eb01001f 	cmp	x0, x1
  4039d0:	540000c8 	b.hi	4039e8 <_int_free_merge_chunk+0xc8>  // b.pmore
  4039d4:	a94153f3 	ldp	x19, x20, [sp, #16]
  4039d8:	a9425bf5 	ldp	x21, x22, [sp, #32]
  4039dc:	f9401bf7 	ldr	x23, [sp, #48]
  4039e0:	a8c47bfd 	ldp	x29, x30, [sp], #64
  4039e4:	d65f03c0 	ret
  4039e8:	a9425bf5 	ldp	x21, x22, [sp, #32]
  4039ec:	aa1403e0 	mov	x0, x20
  4039f0:	a94153f3 	ldp	x19, x20, [sp, #16]
  4039f4:	f9401bf7 	ldr	x23, [sp, #48]
  4039f8:	a8c47bfd 	ldp	x29, x30, [sp], #64
  4039fc:	17fffebd 	b	4034f0 <_int_free_maybe_consolidate.part.0>
  403a00:	b0000260 	adrp	x0, 450000 <__PRETTY_FUNCTION__.1+0x308>
  403a04:	9112c000 	add	x0, x0, #0x4b0
  403a08:	97fff87e 	bl	401c00 <malloc_printerr>
  403a0c:	b0000260 	adrp	x0, 450000 <__PRETTY_FUNCTION__.1+0x308>
  403a10:	91112000 	add	x0, x0, #0x448
  403a14:	97fff87b 	bl	401c00 <malloc_printerr>
  403a18:	f9400401 	ldr	x1, [x0, #8]
  403a1c:	927df021 	and	x1, x1, #0xfffffffffffffff8
  403a20:	8b010000 	add	x0, x0, x1
  403a24:	eb0002df 	cmp	x22, x0
  403a28:	54fff983 	b.cc	403958 <_int_free_merge_chunk+0x38>  // b.lo, b.ul, b.last
  403a2c:	b0000260 	adrp	x0, 450000 <__PRETTY_FUNCTION__.1+0x308>
  403a30:	9111a000 	add	x0, x0, #0x468
  403a34:	97fff873 	bl	401c00 <malloc_printerr>
  403a38:	b0000260 	adrp	x0, 450000 <__PRETTY_FUNCTION__.1+0x308>
  403a3c:	91122000 	add	x0, x0, #0x488
  403a40:	97fff870 	bl	401c00 <malloc_printerr>
  403a44:	d10042a2 	sub	x2, x21, #0x10
  403a48:	91004260 	add	x0, x19, #0x10
  403a4c:	97fff209 	bl	400270 <.plt+0x30>
  403a50:	17ffffcd 	b	403984 <_int_free_merge_chunk+0x64>
  403a54:	b0000260 	adrp	x0, 450000 <__PRETTY_FUNCTION__.1+0x308>
  403a58:	91136000 	add	x0, x0, #0x4d8
  403a5c:	97fff869 	bl	401c00 <malloc_printerr>

0000000000403a60 <_int_free>:
  403a60:	a9bb7bfd 	stp	x29, x30, [sp, #-80]!
  403a64:	910003fd 	mov	x29, sp
  403a68:	a9025bf5 	stp	x21, x22, [sp, #32]
  403a6c:	aa0003f6 	mov	x22, x0
  403a70:	f9400420 	ldr	x0, [x1, #8]
  403a74:	a90153f3 	stp	x19, x20, [sp, #16]
  403a78:	aa0103f3 	mov	x19, x1
  403a7c:	927df014 	and	x20, x0, #0xfffffffffffffff8
  403a80:	a90363f7 	stp	x23, x24, [sp, #48]
  403a84:	cb1403e1 	neg	x1, x20
  403a88:	eb13003f 	cmp	x1, x19
  403a8c:	54001243 	b.cc	403cd4 <_int_free+0x274>  // b.lo, b.ul, b.last
  403a90:	f2400e7f 	tst	x19, #0xf
  403a94:	54001201 	b.ne	403cd4 <_int_free+0x274>  // b.any
  403a98:	f1007e9f 	cmp	x20, #0x1f
  403a9c:	54001249 	b.ls	403ce4 <_int_free+0x284>  // b.plast
  403aa0:	927d0004 	and	x4, x0, #0x8
  403aa4:	37181200 	tbnz	w0, #3, 403ce4 <_int_free+0x284>
  403aa8:	d53bd041 	mrs	x1, tpidr_el0
  403aac:	2a0203f7 	mov	w23, w2
  403ab0:	91400021 	add	x1, x1, #0x0, lsl #12
  403ab4:	9100c021 	add	x1, x1, #0x30
  403ab8:	f9400423 	ldr	x3, [x1, #8]
  403abc:	b4000b23 	cbz	x3, 403c20 <_int_free+0x1c0>
  403ac0:	b0000462 	adrp	x2, 490000 <.got.plt+0x18>
  403ac4:	91014042 	add	x2, x2, #0x50
  403ac8:	d1004681 	sub	x1, x20, #0x11
  403acc:	f0000495 	adrp	x21, 496000 <__pthread_keys+0x39d0>
  403ad0:	f9403445 	ldr	x5, [x2, #104]
  403ad4:	d344fc21 	lsr	x1, x1, #4
  403ad8:	eb0100bf 	cmp	x5, x1
  403adc:	54000189 	b.ls	403b0c <_int_free+0xac>  // b.plast
  403ae0:	9118c2a5 	add	x5, x21, #0x630
  403ae4:	91004266 	add	x6, x19, #0x10
  403ae8:	f9400e68 	ldr	x8, [x19, #24]
  403aec:	f94004a7 	ldr	x7, [x5, #8]
  403af0:	f9403c45 	ldr	x5, [x2, #120]
  403af4:	eb07011f 	cmp	x8, x7
  403af8:	54001460 	b.eq	403d84 <_int_free+0x324>  // b.none
  403afc:	d37ff824 	lsl	x4, x1, #1
  403b00:	78646862 	ldrh	w2, [x3, x4]
  403b04:	eb2220bf 	cmp	x5, w2, uxth
  403b08:	54000c68 	b.hi	403c94 <_int_free+0x234>  // b.pmore
  403b0c:	9118c2a1 	add	x1, x21, #0x630
  403b10:	39401021 	ldrb	w1, [x1, #4]
  403b14:	eb21029f 	cmp	x20, w1, uxtb
  403b18:	54000508 	b.hi	403bb8 <_int_free+0x158>  // b.pmore
  403b1c:	8b140278 	add	x24, x19, x20
  403b20:	f9400700 	ldr	x0, [x24, #8]
  403b24:	f100401f 	cmp	x0, #0x10
  403b28:	54000e69 	b.ls	403cf4 <_int_free+0x294>  // b.plast
  403b2c:	f94446c1 	ldr	x1, [x22, #2184]
  403b30:	927df000 	and	x0, x0, #0xfffffffffffffff8
  403b34:	eb01001f 	cmp	x0, x1
  403b38:	54000de2 	b.cs	403cf4 <_int_free+0x294>  // b.hs, b.nlast
  403b3c:	b94632a1 	ldr	w1, [x21, #1584]
  403b40:	91004278 	add	x24, x19, #0x10
  403b44:	35001181 	cbnz	w1, 403d74 <_int_free+0x314>
  403b48:	910022c0 	add	x0, x22, #0x8
  403b4c:	52800021 	mov	w1, #0x1                   	// #1
  403b50:	b9000001 	str	w1, [x0]
  403b54:	53047e95 	lsr	w21, w20, #4
  403b58:	90000461 	adrp	x1, 48f000 <_IO_file_jumps+0x130>
  403b5c:	f9463021 	ldr	x1, [x1, #3168]
  403b60:	51000aa0 	sub	w0, w21, #0x2
  403b64:	8b000ec0 	add	x0, x22, x0, lsl #3
  403b68:	39400021 	ldrb	w1, [x1]
  403b6c:	f9400814 	ldr	x20, [x0, #16]
  403b70:	34000601 	cbz	w1, 403c30 <_int_free+0x1d0>
  403b74:	eb14027f 	cmp	x19, x20
  403b78:	540007a0 	b.eq	403c6c <_int_free+0x20c>  // b.none
  403b7c:	ca583298 	eor	x24, x20, x24, lsr #12
  403b80:	f9000a78 	str	x24, [x19, #16]
  403b84:	f9000813 	str	x19, [x0, #16]
  403b88:	f100029f 	cmp	x20, #0x0
  403b8c:	1a9f07e0 	cset	w0, ne	// ne = any
  403b90:	6a0002ff 	tst	w23, w0
  403b94:	54000080 	b.eq	403ba4 <_int_free+0x144>  // b.none
  403b98:	f9400680 	ldr	x0, [x20, #8]
  403b9c:	6b4012bf 	cmp	w21, w0, lsr #4
  403ba0:	540011a1 	b.ne	403dd4 <_int_free+0x374>  // b.any
  403ba4:	a94153f3 	ldp	x19, x20, [sp, #16]
  403ba8:	a9425bf5 	ldp	x21, x22, [sp, #32]
  403bac:	a94363f7 	ldp	x23, x24, [sp, #48]
  403bb0:	a8c57bfd 	ldp	x29, x30, [sp], #80
  403bb4:	d65f03c0 	ret
  403bb8:	37080620 	tbnz	w0, #1, 403c7c <_int_free+0x21c>
  403bbc:	90000460 	adrp	x0, 48f000 <_IO_file_jumps+0x130>
  403bc0:	f9463000 	ldr	x0, [x0, #3168]
  403bc4:	39400000 	ldrb	w0, [x0]
  403bc8:	35000760 	cbnz	w0, 403cb4 <_int_free+0x254>
  403bcc:	35000757 	cbnz	w23, 403cb4 <_int_free+0x254>
  403bd0:	aa1603e2 	mov	x2, x22
  403bd4:	52800021 	mov	w1, #0x1                   	// #1
  403bd8:	52800000 	mov	w0, #0x0                   	// #0
  403bdc:	9401154d 	bl	449110 <__aarch64_cas4_acq>
  403be0:	35001020 	cbnz	w0, 403de4 <_int_free+0x384>
  403be4:	aa1403e2 	mov	x2, x20
  403be8:	aa1303e1 	mov	x1, x19
  403bec:	aa1603e0 	mov	x0, x22
  403bf0:	97ffff4c 	bl	403920 <_int_free_merge_chunk>
  403bf4:	aa1603e1 	mov	x1, x22
  403bf8:	52800000 	mov	w0, #0x0                   	// #0
  403bfc:	940115f1 	bl	4493c0 <__aarch64_swp4_rel>
  403c00:	7100041f 	cmp	w0, #0x1
  403c04:	54fffd0d 	b.le	403ba4 <_int_free+0x144>
  403c08:	a94153f3 	ldp	x19, x20, [sp, #16]
  403c0c:	aa1603e0 	mov	x0, x22
  403c10:	a9425bf5 	ldp	x21, x22, [sp, #32]
  403c14:	a94363f7 	ldp	x23, x24, [sp, #48]
  403c18:	a8c57bfd 	ldp	x29, x30, [sp], #80
  403c1c:	17fff725 	b	4018b0 <__lll_lock_wake_private>
  403c20:	f0000495 	adrp	x21, 496000 <__pthread_keys+0x39d0>
  403c24:	9118c2a1 	add	x1, x21, #0x630
  403c28:	39401021 	ldrb	w1, [x1, #4]
  403c2c:	17ffffba 	b	403b14 <_int_free+0xb4>
  403c30:	d37d6ea0 	ubfiz	x0, x21, #3, #28
  403c34:	d34cff18 	lsr	x24, x24, #12
  403c38:	8b0002d6 	add	x22, x22, x0
  403c3c:	1400000a 	b	403c64 <_int_free+0x204>
  403c40:	ca140300 	eor	x0, x24, x20
  403c44:	f9000a60 	str	x0, [x19, #16]
  403c48:	aa1603e2 	mov	x2, x22
  403c4c:	aa1303e1 	mov	x1, x19
  403c50:	aa1403e0 	mov	x0, x20
  403c54:	9401155f 	bl	4491d0 <__aarch64_cas8_rel>
  403c58:	eb00029f 	cmp	x20, x0
  403c5c:	54fff960 	b.eq	403b88 <_int_free+0x128>  // b.none
  403c60:	aa0003f4 	mov	x20, x0
  403c64:	eb13029f 	cmp	x20, x19
  403c68:	54fffec1 	b.ne	403c40 <_int_free+0x1e0>  // b.any
  403c6c:	b0000260 	adrp	x0, 450000 <__PRETTY_FUNCTION__.1+0x308>
  403c70:	9117e000 	add	x0, x0, #0x5f8
  403c74:	f90023f9 	str	x25, [sp, #64]
  403c78:	97fff7e2 	bl	401c00 <malloc_printerr>
  403c7c:	a9425bf5 	ldp	x21, x22, [sp, #32]
  403c80:	aa1303e0 	mov	x0, x19
  403c84:	a94153f3 	ldp	x19, x20, [sp, #16]
  403c88:	a94363f7 	ldp	x23, x24, [sp, #48]
  403c8c:	a8c57bfd 	ldp	x29, x30, [sp], #80
  403c90:	17fff838 	b	401d70 <munmap_chunk>
  403c94:	8b010c61 	add	x1, x3, x1, lsl #3
  403c98:	11000442 	add	w2, w2, #0x1
  403c9c:	f9404020 	ldr	x0, [x1, #128]
  403ca0:	ca463000 	eor	x0, x0, x6, lsr #12
  403ca4:	a9011e60 	stp	x0, x7, [x19, #16]
  403ca8:	f9004026 	str	x6, [x1, #128]
  403cac:	78246862 	strh	w2, [x3, x4]
  403cb0:	17ffffbd 	b	403ba4 <_int_free+0x144>
  403cb4:	a94363f7 	ldp	x23, x24, [sp, #48]
  403cb8:	aa1403e2 	mov	x2, x20
  403cbc:	aa1303e1 	mov	x1, x19
  403cc0:	aa1603e0 	mov	x0, x22
  403cc4:	a94153f3 	ldp	x19, x20, [sp, #16]
  403cc8:	a9425bf5 	ldp	x21, x22, [sp, #32]
  403ccc:	a8c57bfd 	ldp	x29, x30, [sp], #80
  403cd0:	17ffff14 	b	403920 <_int_free_merge_chunk>
  403cd4:	b0000260 	adrp	x0, 450000 <__PRETTY_FUNCTION__.1+0x308>
  403cd8:	91144000 	add	x0, x0, #0x510
  403cdc:	f90023f9 	str	x25, [sp, #64]
  403ce0:	97fff7c8 	bl	401c00 <malloc_printerr>
  403ce4:	b0000260 	adrp	x0, 450000 <__PRETTY_FUNCTION__.1+0x308>
  403ce8:	9114a000 	add	x0, x0, #0x528
  403cec:	f90023f9 	str	x25, [sp, #64]
  403cf0:	97fff7c4 	bl	401c00 <malloc_printerr>
  403cf4:	f90023f9 	str	x25, [sp, #64]
  403cf8:	35000337 	cbnz	w23, 403d5c <_int_free+0x2fc>
  403cfc:	aa1603e2 	mov	x2, x22
  403d00:	52800021 	mov	w1, #0x1                   	// #1
  403d04:	52800000 	mov	w0, #0x0                   	// #0
  403d08:	94011502 	bl	449110 <__aarch64_cas4_acq>
  403d0c:	350002e0 	cbnz	w0, 403d68 <_int_free+0x308>
  403d10:	f9400700 	ldr	x0, [x24, #8]
  403d14:	f100401f 	cmp	x0, #0x10
  403d18:	54000189 	b.ls	403d48 <_int_free+0x2e8>  // b.plast
  403d1c:	f94446d9 	ldr	x25, [x22, #2184]
  403d20:	927df018 	and	x24, x0, #0xfffffffffffffff8
  403d24:	aa1603e1 	mov	x1, x22
  403d28:	52800000 	mov	w0, #0x0                   	// #0
  403d2c:	940115a5 	bl	4493c0 <__aarch64_swp4_rel>
  403d30:	7100041f 	cmp	w0, #0x1
  403d34:	540006cc 	b.gt	403e0c <_int_free+0x3ac>
  403d38:	eb19031f 	cmp	x24, x25
  403d3c:	54000102 	b.cs	403d5c <_int_free+0x2fc>  // b.hs, b.nlast
  403d40:	f94023f9 	ldr	x25, [sp, #64]
  403d44:	17ffff7e 	b	403b3c <_int_free+0xdc>
  403d48:	aa1603e1 	mov	x1, x22
  403d4c:	52800000 	mov	w0, #0x0                   	// #0
  403d50:	9401159c 	bl	4493c0 <__aarch64_swp4_rel>
  403d54:	7100041f 	cmp	w0, #0x1
  403d58:	5400054c 	b.gt	403e00 <_int_free+0x3a0>
  403d5c:	b0000260 	adrp	x0, 450000 <__PRETTY_FUNCTION__.1+0x308>
  403d60:	91174000 	add	x0, x0, #0x5d0
  403d64:	97fff7a7 	bl	401c00 <malloc_printerr>
  403d68:	aa1603e0 	mov	x0, x22
  403d6c:	97fff695 	bl	4017c0 <__lll_lock_wait_private>
  403d70:	17ffffe8 	b	403d10 <_int_free+0x2b0>
  403d74:	d1004282 	sub	x2, x20, #0x10
  403d78:	aa1803e0 	mov	x0, x24
  403d7c:	97fff13d 	bl	400270 <.plt+0x30>
  403d80:	17ffff72 	b	403b48 <_int_free+0xe8>
  403d84:	91004022 	add	x2, x1, #0x10
  403d88:	f8627862 	ldr	x2, [x3, x2, lsl #3]
  403d8c:	b5000142 	cbnz	x2, 403db4 <_int_free+0x354>
  403d90:	17ffff5b 	b	403afc <_int_free+0x9c>
  403d94:	eb06005f 	cmp	x2, x6
  403d98:	54000480 	b.eq	403e28 <_int_free+0x3c8>  // b.none
  403d9c:	f9400048 	ldr	x8, [x2]
  403da0:	d34cfc49 	lsr	x9, x2, #12
  403da4:	91000484 	add	x4, x4, #0x1
  403da8:	ca080122 	eor	x2, x9, x8
  403dac:	eb08013f 	cmp	x9, x8
  403db0:	54ffea60 	b.eq	403afc <_int_free+0x9c>  // b.none
  403db4:	eb05009f 	cmp	x4, x5
  403db8:	54000300 	b.eq	403e18 <_int_free+0x3b8>  // b.none
  403dbc:	f2400c5f 	tst	x2, #0xf
  403dc0:	54fffea0 	b.eq	403d94 <_int_free+0x334>  // b.none
  403dc4:	b0000260 	adrp	x0, 450000 <__PRETTY_FUNCTION__.1+0x308>
  403dc8:	9115c000 	add	x0, x0, #0x570
  403dcc:	f90023f9 	str	x25, [sp, #64]
  403dd0:	97fff78c 	bl	401c00 <malloc_printerr>
  403dd4:	b0000260 	adrp	x0, 450000 <__PRETTY_FUNCTION__.1+0x308>
  403dd8:	91188000 	add	x0, x0, #0x620
  403ddc:	f90023f9 	str	x25, [sp, #64]
  403de0:	97fff788 	bl	401c00 <malloc_printerr>
  403de4:	aa1603e0 	mov	x0, x22
  403de8:	97fff676 	bl	4017c0 <__lll_lock_wait_private>
  403dec:	aa1403e2 	mov	x2, x20
  403df0:	aa1303e1 	mov	x1, x19
  403df4:	aa1603e0 	mov	x0, x22
  403df8:	97fffeca 	bl	403920 <_int_free_merge_chunk>
  403dfc:	17ffff7e 	b	403bf4 <_int_free+0x194>
  403e00:	aa1603e0 	mov	x0, x22
  403e04:	97fff6ab 	bl	4018b0 <__lll_lock_wake_private>
  403e08:	17ffffd5 	b	403d5c <_int_free+0x2fc>
  403e0c:	aa1603e0 	mov	x0, x22
  403e10:	97fff6a8 	bl	4018b0 <__lll_lock_wake_private>
  403e14:	17ffffc9 	b	403d38 <_int_free+0x2d8>
  403e18:	b0000260 	adrp	x0, 450000 <__PRETTY_FUNCTION__.1+0x308>
  403e1c:	91150000 	add	x0, x0, #0x540
  403e20:	f90023f9 	str	x25, [sp, #64]
  403e24:	97fff777 	bl	401c00 <malloc_printerr>
  403e28:	b0000260 	adrp	x0, 450000 <__PRETTY_FUNCTION__.1+0x308>
  403e2c:	91168000 	add	x0, x0, #0x5a0
  403e30:	f90023f9 	str	x25, [sp, #64]
  403e34:	97fff773 	bl	401c00 <malloc_printerr>
  403e38:	d503201f 	nop
  403e3c:	d503201f 	nop

0000000000403e40 <sysmalloc>:
  403e40:	a9b77bfd 	stp	x29, x30, [sp, #-144]!
  403e44:	910003fd 	mov	x29, sp
  403e48:	a9025bf5 	stp	x21, x22, [sp, #32]
  403e4c:	90000476 	adrp	x22, 48f000 <_IO_file_jumps+0x130>
  403e50:	f947dad6 	ldr	x22, [x22, #4016]
  403e54:	a90153f3 	stp	x19, x20, [sp, #16]
  403e58:	aa0003f4 	mov	x20, x0
  403e5c:	a90363f7 	stp	x23, x24, [sp, #48]
  403e60:	aa0103f3 	mov	x19, x1
  403e64:	a9046bf9 	stp	x25, x26, [sp, #64]
  403e68:	b000047a 	adrp	x26, 490000 <.got.plt+0x18>
  403e6c:	f94002d7 	ldr	x23, [x22]
  403e70:	b4000b21 	cbz	x1, 403fd4 <sysmalloc+0x194>
  403e74:	91014340 	add	x0, x26, #0x50
  403e78:	f9400801 	ldr	x1, [x0, #16]
  403e7c:	eb14003f 	cmp	x1, x20
  403e80:	54000a49 	b.ls	403fc8 <sysmalloc+0x188>  // b.plast
  403e84:	a90573fb 	stp	x27, x28, [sp, #80]
  403e88:	b90063ff 	str	wzr, [sp, #96]
  403e8c:	aa1303e0 	mov	x0, x19
  403e90:	9100829c 	add	x28, x20, #0x20
  403e94:	f8460c06 	ldr	x6, [x0, #96]!
  403e98:	f94004c1 	ldr	x1, [x6, #8]
  403e9c:	f27df035 	ands	x21, x1, #0xfffffffffffffff8
  403ea0:	8b1500c7 	add	x7, x6, x21
  403ea4:	fa460000 	ccmp	x0, x6, #0x0, eq	// eq = none
  403ea8:	54000140 	b.eq	403ed0 <sysmalloc+0x90>  // b.none
  403eac:	f1007ebf 	cmp	x21, #0x1f
  403eb0:	54003549 	b.ls	404558 <sysmalloc+0x718>  // b.plast
  403eb4:	36003521 	tbz	w1, #0, 404558 <sysmalloc+0x718>
  403eb8:	d10006e0 	sub	x0, x23, #0x1
  403ebc:	ea0000ff 	tst	x7, x0
  403ec0:	540034c1 	b.ne	404558 <sysmalloc+0x718>  // b.any
  403ec4:	9100829c 	add	x28, x20, #0x20
  403ec8:	eb15039f 	cmp	x28, x21
  403ecc:	54003569 	b.ls	404578 <sysmalloc+0x738>  // b.plast
  403ed0:	b000047b 	adrp	x27, 490000 <.got.plt+0x18>
  403ed4:	9103c360 	add	x0, x27, #0xf0
  403ed8:	eb00027f 	cmp	x19, x0
  403edc:	54000f00 	b.eq	4040bc <sysmalloc+0x27c>  // b.none
  403ee0:	91014340 	add	x0, x26, #0x50
  403ee4:	f9401800 	ldr	x0, [x0, #48]
  403ee8:	b4001ce0 	cbz	x0, 404284 <sysmalloc+0x444>
  403eec:	d37ef402 	lsl	x2, x0, #2
  403ef0:	cb000be0 	neg	x0, x0, lsl #2
  403ef4:	8a0000d8 	and	x24, x6, x0
  403ef8:	cb150380 	sub	x0, x28, x21
  403efc:	f9400b04 	ldr	x4, [x24, #16]
  403f00:	f100001f 	cmp	x0, #0x0
  403f04:	5400088d 	b.le	404014 <sysmalloc+0x1d4>
  403f08:	f9401301 	ldr	x1, [x24, #32]
  403f0c:	d1000416 	sub	x22, x0, #0x1
  403f10:	8b0102d6 	add	x22, x22, x1
  403f14:	cb0103e1 	neg	x1, x1
  403f18:	8a0102d6 	and	x22, x22, x1
  403f1c:	8b0402d6 	add	x22, x22, x4
  403f20:	eb16005f 	cmp	x2, x22
  403f24:	54000783 	b.cc	404014 <sysmalloc+0x1d4>  // b.lo, b.ul, b.last
  403f28:	f9400f00 	ldr	x0, [x24, #24]
  403f2c:	aa0603f9 	mov	x25, x6
  403f30:	eb0002df 	cmp	x22, x0
  403f34:	54001788 	b.hi	404224 <sysmalloc+0x3e4>  // b.pmore
  403f38:	f9444661 	ldr	x1, [x19, #2184]
  403f3c:	8b160300 	add	x0, x24, x22
  403f40:	f9000b16 	str	x22, [x24, #16]
  403f44:	cb060000 	sub	x0, x0, x6
  403f48:	cb040021 	sub	x1, x1, x4
  403f4c:	b2400000 	orr	x0, x0, #0x1
  403f50:	8b160021 	add	x1, x1, x22
  403f54:	f9044661 	str	x1, [x19, #2184]
  403f58:	f90004c0 	str	x0, [x6, #8]
  403f5c:	f9444a60 	ldr	x0, [x19, #2192]
  403f60:	eb01001f 	cmp	x0, x1
  403f64:	54000042 	b.cs	403f6c <sysmalloc+0x12c>  // b.hs, b.nlast
  403f68:	f9044a61 	str	x1, [x19, #2192]
  403f6c:	f9400721 	ldr	x1, [x25, #8]
  403f70:	927df021 	and	x1, x1, #0xfffffffffffffff8
  403f74:	eb1c003f 	cmp	x1, x28
  403f78:	54000883 	b.cc	404088 <sysmalloc+0x248>  // b.lo, b.ul, b.last
  403f7c:	9103c37b 	add	x27, x27, #0xf0
  403f80:	8b140323 	add	x3, x25, x20
  403f84:	eb1b027f 	cmp	x19, x27
  403f88:	cb140021 	sub	x1, x1, x20
  403f8c:	9a9f07e2 	cset	x2, ne	// ne = any
  403f90:	91004320 	add	x0, x25, #0x10
  403f94:	a94573fb 	ldp	x27, x28, [sp, #80]
  403f98:	aa020a82 	orr	x2, x20, x2, lsl #2
  403f9c:	f9003263 	str	x3, [x19, #96]
  403fa0:	b2400042 	orr	x2, x2, #0x1
  403fa4:	f9000722 	str	x2, [x25, #8]
  403fa8:	b2400021 	orr	x1, x1, #0x1
  403fac:	f9000461 	str	x1, [x3, #8]
  403fb0:	a94153f3 	ldp	x19, x20, [sp, #16]
  403fb4:	a9425bf5 	ldp	x21, x22, [sp, #32]
  403fb8:	a94363f7 	ldp	x23, x24, [sp, #48]
  403fbc:	a9446bf9 	ldp	x25, x26, [sp, #64]
  403fc0:	a8c97bfd 	ldp	x29, x30, [sp], #144
  403fc4:	d65f03c0 	ret
  403fc8:	29478001 	ldp	w1, w0, [x0, #60]
  403fcc:	6b00003f 	cmp	w1, w0
  403fd0:	54fff5aa 	b.ge	403e84 <sysmalloc+0x44>  // b.tcont
  403fd4:	91014340 	add	x0, x26, #0x50
  403fd8:	f9401801 	ldr	x1, [x0, #48]
  403fdc:	d1000422 	sub	x2, x1, #0x1
  403fe0:	eb14005f 	cmp	x2, x20
  403fe4:	54001563 	b.cc	404290 <sysmalloc+0x450>  // b.lo, b.ul, b.last
  403fe8:	aa1703e1 	mov	x1, x23
  403fec:	aa1403e0 	mov	x0, x20
  403ff0:	52800002 	mov	w2, #0x0                   	// #0
  403ff4:	97fffc8f 	bl	403230 <sysmalloc_mmap.isra.0>
  403ff8:	b100041f 	cmn	x0, #0x1
  403ffc:	54fffda1 	b.ne	403fb0 <sysmalloc+0x170>  // b.any
  404000:	b4000513 	cbz	x19, 4040a0 <sysmalloc+0x260>
  404004:	52800020 	mov	w0, #0x1                   	// #1
  404008:	a90573fb 	stp	x27, x28, [sp, #80]
  40400c:	b90063e0 	str	w0, [sp, #96]
  404010:	17ffff9f 	b	403e8c <sysmalloc+0x4c>
  404014:	9101435a 	add	x26, x26, #0x50
  404018:	91014280 	add	x0, x20, #0x50
  40401c:	f90037e6 	str	x6, [sp, #104]
  404020:	f9400741 	ldr	x1, [x26, #8]
  404024:	97fffaa4 	bl	402ab4 <new_heap>
  404028:	b4001400 	cbz	x0, 4042a8 <sysmalloc+0x468>
  40402c:	f94037e6 	ldr	x6, [sp, #104]
  404030:	d10082b5 	sub	x21, x21, #0x20
  404034:	f9400802 	ldr	x2, [x0, #16]
  404038:	927ceeb5 	and	x21, x21, #0xfffffffffffffff0
  40403c:	f9444661 	ldr	x1, [x19, #2184]
  404040:	9100c019 	add	x25, x0, #0x30
  404044:	910042a4 	add	x4, x21, #0x10
  404048:	a9006013 	stp	x19, x24, [x0]
  40404c:	8b0400c5 	add	x5, x6, x4
  404050:	8b010041 	add	x1, x2, x1
  404054:	d100c042 	sub	x2, x2, #0x30
  404058:	f9003279 	str	x25, [x19, #96]
  40405c:	b2400042 	orr	x2, x2, #0x1
  404060:	f9044661 	str	x1, [x19, #2184]
  404064:	f9000722 	str	x2, [x25, #8]
  404068:	d2800022 	mov	x2, #0x1                   	// #1
  40406c:	f90004a2 	str	x2, [x5, #8]
  404070:	f1007ebf 	cmp	x21, #0x1f
  404074:	54000ee8 	b.hi	404250 <sysmalloc+0x410>  // b.pmore
  404078:	b2400080 	orr	x0, x4, #0x1
  40407c:	f90004c0 	str	x0, [x6, #8]
  404080:	f82468c4 	str	x4, [x6, x4]
  404084:	17ffffb6 	b	403f5c <sysmalloc+0x11c>
  404088:	a94573fb 	ldp	x27, x28, [sp, #80]
  40408c:	d53bd041 	mrs	x1, tpidr_el0
  404090:	d2a00000 	movz	x0, #0x0, lsl #16
  404094:	f2800500 	movk	x0, #0x28
  404098:	52800182 	mov	w2, #0xc                   	// #12
  40409c:	b8206822 	str	w2, [x1, x0]
  4040a0:	a94153f3 	ldp	x19, x20, [sp, #16]
  4040a4:	d2800000 	mov	x0, #0x0                   	// #0
  4040a8:	a9425bf5 	ldp	x21, x22, [sp, #32]
  4040ac:	a94363f7 	ldp	x23, x24, [sp, #48]
  4040b0:	a9446bf9 	ldp	x25, x26, [sp, #64]
  4040b4:	a8c97bfd 	ldp	x29, x30, [sp], #144
  4040b8:	d65f03c0 	ret
  4040bc:	91014341 	add	x1, x26, #0x50
  4040c0:	b9400662 	ldr	w2, [x19, #4]
  4040c4:	f9400420 	ldr	x0, [x1, #8]
  4040c8:	f27f005f 	tst	x2, #0x2
  4040cc:	f9401421 	ldr	x1, [x1, #40]
  4040d0:	91008000 	add	x0, x0, #0x20
  4040d4:	8b140000 	add	x0, x0, x20
  4040d8:	cb150002 	sub	x2, x0, x21
  4040dc:	9a800040 	csel	x0, x2, x0, eq	// eq = none
  4040e0:	b5001ec1 	cbnz	x1, 4044b8 <sysmalloc+0x678>
  4040e4:	f94002c1 	ldr	x1, [x22]
  4040e8:	d1000438 	sub	x24, x1, #0x1
  4040ec:	cb0103e1 	neg	x1, x1
  4040f0:	8b000318 	add	x24, x24, x0
  4040f4:	8a010318 	and	x24, x24, x1
  4040f8:	f90047f8 	str	x24, [sp, #136]
  4040fc:	f100031f 	cmp	x24, #0x0
  404100:	54000dec 	b.gt	4042bc <sysmalloc+0x47c>
  404104:	91014340 	add	x0, x26, #0x50
  404108:	f9401804 	ldr	x4, [x0, #48]
  40410c:	b50011a4 	cbnz	x4, 404340 <sysmalloc+0x500>
  404110:	910223f8 	add	x24, sp, #0x88
  404114:	aa1803e0 	mov	x0, x24
  404118:	aa1703e4 	mov	x4, x23
  40411c:	aa1503e2 	mov	x2, x21
  404120:	aa1403e1 	mov	x1, x20
  404124:	52800005 	mov	w5, #0x0                   	// #0
  404128:	d2a00203 	mov	x3, #0x100000              	// #1048576
  40412c:	a9061fe6 	stp	x6, x7, [sp, #96]
  404130:	97fffbf9 	bl	403114 <sysmalloc_mmap_fallback.constprop.0>
  404134:	aa0003f9 	mov	x25, x0
  404138:	a9461fe6 	ldp	x6, x7, [sp, #96]
  40413c:	b100041f 	cmn	x0, #0x1
  404140:	540012c0 	b.eq	404398 <sysmalloc+0x558>  // b.none
  404144:	f94047f8 	ldr	x24, [sp, #136]
  404148:	8b180324 	add	x4, x25, x24
  40414c:	b4001279 	cbz	x25, 404398 <sysmalloc+0x558>
  404150:	91014341 	add	x1, x26, #0x50
  404154:	9103c362 	add	x2, x27, #0xf0
  404158:	f9403023 	ldr	x3, [x1, #96]
  40415c:	f9444441 	ldr	x1, [x2, #2184]
  404160:	b4001943 	cbz	x3, 404488 <sysmalloc+0x648>
  404164:	8b010301 	add	x1, x24, x1
  404168:	52800003 	mov	w3, #0x0                   	// #0
  40416c:	f9044441 	str	x1, [x2, #2184]
  404170:	9103c362 	add	x2, x27, #0xf0
  404174:	b9400440 	ldr	w0, [x2, #4]
  404178:	37081180 	tbnz	w0, #1, 4043a8 <sysmalloc+0x568>
  40417c:	f10002bf 	cmp	x21, #0x0
  404180:	fa5910e0 	ccmp	x7, x25, #0x0, ne	// ne = any
  404184:	540020a8 	b.hi	404598 <sysmalloc+0x758>  // b.pmore
  404188:	b4000095 	cbz	x21, 404198 <sysmalloc+0x358>
  40418c:	cb070320 	sub	x0, x25, x7
  404190:	8b010000 	add	x0, x0, x1
  404194:	f9044440 	str	x0, [x2, #2184]
  404198:	f2400f20 	ands	x0, x25, #0xf
  40419c:	54001a20 	b.eq	4044e0 <sysmalloc+0x6a0>  // b.none
  4041a0:	d2800202 	mov	x2, #0x10                  	// #16
  4041a4:	cb000042 	sub	x2, x2, x0
  4041a8:	8b020320 	add	x0, x25, x2
  4041ac:	8b150042 	add	x2, x2, x21
  4041b0:	f90033e0 	str	x0, [sp, #96]
  4041b4:	8b020300 	add	x0, x24, x2
  4041b8:	d10006e1 	sub	x1, x23, #0x1
  4041bc:	8b000320 	add	x0, x25, x0
  4041c0:	cb1703f7 	neg	x23, x23
  4041c4:	8b000021 	add	x1, x1, x0
  4041c8:	cb000042 	sub	x2, x2, x0
  4041cc:	8a170021 	and	x1, x1, x23
  4041d0:	8b020037 	add	x23, x1, x2
  4041d4:	b7f81f97 	tbnz	x23, #63, 4045c4 <sysmalloc+0x784>
  4041d8:	d0000498 	adrp	x24, 496000 <__pthread_keys+0x39d0>
  4041dc:	9118c318 	add	x24, x24, #0x630
  4041e0:	39404300 	ldrb	w0, [x24, #16]
  4041e4:	37000da0 	tbnz	w0, #0, 404398 <sysmalloc+0x558>
  4041e8:	aa1703e0 	mov	x0, x23
  4041ec:	a906dfe6 	stp	x6, x23, [sp, #104]
  4041f0:	9400187c 	bl	40a3e0 <__sbrk>
  4041f4:	aa0003e4 	mov	x4, x0
  4041f8:	d1000400 	sub	x0, x0, #0x1
  4041fc:	a94697e6 	ldp	x6, x5, [sp, #104]
  404200:	b1000c1f 	cmn	x0, #0x3
  404204:	54000b88 	b.hi	404374 <sysmalloc+0x534>  // b.pmore
  404208:	9101435a 	add	x26, x26, #0x50
  40420c:	f9401740 	ldr	x0, [x26, #40]
  404210:	d1000400 	sub	x0, x0, #0x1
  404214:	eb0002ff 	cmp	x23, x0
  404218:	540011c8 	b.hi	404450 <sysmalloc+0x610>  // b.pmore
  40421c:	f94033f9 	ldr	x25, [sp, #96]
  404220:	14000066 	b	4043b8 <sysmalloc+0x578>
  404224:	cb0002c1 	sub	x1, x22, x0
  404228:	52800062 	mov	w2, #0x3                   	// #3
  40422c:	8b000300 	add	x0, x24, x0
  404230:	a90693e6 	stp	x6, x4, [sp, #104]
  404234:	94001853 	bl	40a380 <__mprotect>
  404238:	f94037e6 	ldr	x6, [sp, #104]
  40423c:	35ffeec0 	cbnz	w0, 404014 <sysmalloc+0x1d4>
  404240:	f9403279 	ldr	x25, [x19, #96]
  404244:	f9000f16 	str	x22, [x24, #24]
  404248:	f9403be4 	ldr	x4, [sp, #112]
  40424c:	17ffff3b 	b	403f38 <sysmalloc+0xf8>
  404250:	d0000280 	adrp	x0, 456000 <__PRETTY_FUNCTION__.0+0x90>
  404254:	d28000a1 	mov	x1, #0x5                   	// #5
  404258:	3dc08000 	ldr	q0, [x0, #512]
  40425c:	8b1500c0 	add	x0, x6, x21
  404260:	aa0102b5 	orr	x21, x21, x1
  404264:	aa0603e1 	mov	x1, x6
  404268:	3c808000 	stur	q0, [x0, #8]
  40426c:	aa1303e0 	mov	x0, x19
  404270:	f90004d5 	str	x21, [x6, #8]
  404274:	97fffdfb 	bl	403a60 <_int_free>
  404278:	f9403279 	ldr	x25, [x19, #96]
  40427c:	f9444661 	ldr	x1, [x19, #2184]
  404280:	17ffff37 	b	403f5c <sysmalloc+0x11c>
  404284:	b26697e0 	mov	x0, #0xfffffffffc000000    	// #-67108864
  404288:	d2a08002 	mov	x2, #0x4000000             	// #67108864
  40428c:	17ffff1a 	b	403ef4 <sysmalloc+0xb4>
  404290:	b9403802 	ldr	w2, [x0, #56]
  404294:	aa1403e0 	mov	x0, x20
  404298:	97fffbe6 	bl	403230 <sysmalloc_mmap.isra.0>
  40429c:	b100041f 	cmn	x0, #0x1
  4042a0:	54ffe881 	b.ne	403fb0 <sysmalloc+0x170>  // b.any
  4042a4:	17ffff51 	b	403fe8 <sysmalloc+0x1a8>
  4042a8:	b94063e0 	ldr	w0, [sp, #96]
  4042ac:	34000f60 	cbz	w0, 404498 <sysmalloc+0x658>
  4042b0:	f9403279 	ldr	x25, [x19, #96]
  4042b4:	f9444661 	ldr	x1, [x19, #2184]
  4042b8:	17ffff29 	b	403f5c <sysmalloc+0x11c>
  4042bc:	d0000480 	adrp	x0, 496000 <__pthread_keys+0x39d0>
  4042c0:	39590000 	ldrb	w0, [x0, #1600]
  4042c4:	3707f200 	tbnz	w0, #0, 404104 <sysmalloc+0x2c4>
  4042c8:	aa1803e0 	mov	x0, x24
  4042cc:	a9061fe6 	stp	x6, x7, [sp, #96]
  4042d0:	94001844 	bl	40a3e0 <__sbrk>
  4042d4:	aa0003f9 	mov	x25, x0
  4042d8:	d1000400 	sub	x0, x0, #0x1
  4042dc:	a9461fe6 	ldp	x6, x7, [sp, #96]
  4042e0:	b1000c1f 	cmn	x0, #0x3
  4042e4:	54fff108 	b.hi	404104 <sysmalloc+0x2c4>  // b.pmore
  4042e8:	91014340 	add	x0, x26, #0x50
  4042ec:	f9401400 	ldr	x0, [x0, #40]
  4042f0:	d1000400 	sub	x0, x0, #0x1
  4042f4:	eb00031f 	cmp	x24, x0
  4042f8:	54000968 	b.hi	404424 <sysmalloc+0x5e4>  // b.pmore
  4042fc:	91014340 	add	x0, x26, #0x50
  404300:	52800023 	mov	w3, #0x1                   	// #1
  404304:	f9403004 	ldr	x4, [x0, #96]
  404308:	b4000c24 	cbz	x4, 40448c <sysmalloc+0x64c>
  40430c:	d2800004 	mov	x4, #0x0                   	// #0
  404310:	9103c362 	add	x2, x27, #0xf0
  404314:	7100007f 	cmp	w3, #0x0
  404318:	fa5910e0 	ccmp	x7, x25, #0x0, ne	// ne = any
  40431c:	f9444441 	ldr	x1, [x2, #2184]
  404320:	8b010301 	add	x1, x24, x1
  404324:	f9044441 	str	x1, [x2, #2184]
  404328:	54fff241 	b.ne	404170 <sysmalloc+0x330>  // b.any
  40432c:	8b1802a0 	add	x0, x21, x24
  404330:	f9403059 	ldr	x25, [x2, #96]
  404334:	b2400000 	orr	x0, x0, #0x1
  404338:	f90004c0 	str	x0, [x6, #8]
  40433c:	17ffff08 	b	403f5c <sysmalloc+0x11c>
  404340:	b9403805 	ldr	w5, [x0, #56]
  404344:	910223f8 	add	x24, sp, #0x88
  404348:	aa0403e3 	mov	x3, x4
  40434c:	aa1503e2 	mov	x2, x21
  404350:	aa1403e1 	mov	x1, x20
  404354:	aa1803e0 	mov	x0, x24
  404358:	a9061fe6 	stp	x6, x7, [sp, #96]
  40435c:	97fffb6e 	bl	403114 <sysmalloc_mmap_fallback.constprop.0>
  404360:	a9461fe6 	ldp	x6, x7, [sp, #96]
  404364:	aa0003f9 	mov	x25, x0
  404368:	b100041f 	cmn	x0, #0x1
  40436c:	54ffeec1 	b.ne	404144 <sysmalloc+0x304>  // b.any
  404370:	17ffff69 	b	404114 <sysmalloc+0x2d4>
  404374:	39404300 	ldrb	w0, [x24, #16]
  404378:	37000100 	tbnz	w0, #0, 404398 <sysmalloc+0x558>
  40437c:	d2800000 	mov	x0, #0x0                   	// #0
  404380:	f90037e6 	str	x6, [sp, #104]
  404384:	94001817 	bl	40a3e0 <__sbrk>
  404388:	aa0003e4 	mov	x4, x0
  40438c:	f94037e6 	ldr	x6, [sp, #104]
  404390:	b100041f 	cmn	x0, #0x1
  404394:	54000ac1 	b.ne	4044ec <sysmalloc+0x6ac>  // b.any
  404398:	9103c360 	add	x0, x27, #0xf0
  40439c:	f9403019 	ldr	x25, [x0, #96]
  4043a0:	f9444401 	ldr	x1, [x0, #2184]
  4043a4:	17fffeee 	b	403f5c <sysmalloc+0x11c>
  4043a8:	f2400f37 	ands	x23, x25, #0xf
  4043ac:	54000fc1 	b.ne	4045a4 <sysmalloc+0x764>  // b.any
  4043b0:	d2800005 	mov	x5, #0x0                   	// #0
  4043b4:	35000a63 	cbnz	w3, 404500 <sysmalloc+0x6c0>
  4043b8:	9103c376 	add	x22, x27, #0xf0
  4043bc:	cb190081 	sub	x1, x4, x25
  4043c0:	8b050021 	add	x1, x1, x5
  4043c4:	b2400021 	orr	x1, x1, #0x1
  4043c8:	f94446c0 	ldr	x0, [x22, #2184]
  4043cc:	f90032d9 	str	x25, [x22, #96]
  4043d0:	f9000721 	str	x1, [x25, #8]
  4043d4:	8b0002e1 	add	x1, x23, x0
  4043d8:	f90446c1 	str	x1, [x22, #2184]
  4043dc:	b4ffdc15 	cbz	x21, 403f5c <sysmalloc+0x11c>
  4043e0:	d10082a0 	sub	x0, x21, #0x20
  4043e4:	d2800223 	mov	x3, #0x11                  	// #17
  4043e8:	927cec00 	and	x0, x0, #0xfffffffffffffff0
  4043ec:	8b0000c2 	add	x2, x6, x0
  4043f0:	b2400004 	orr	x4, x0, #0x1
  4043f4:	f90004c4 	str	x4, [x6, #8]
  4043f8:	f9000443 	str	x3, [x2, #8]
  4043fc:	f9000c43 	str	x3, [x2, #24]
  404400:	f1007c1f 	cmp	x0, #0x1f
  404404:	54ffdac9 	b.ls	403f5c <sysmalloc+0x11c>  // b.plast
  404408:	aa0603e1 	mov	x1, x6
  40440c:	aa1603e0 	mov	x0, x22
  404410:	52800022 	mov	w2, #0x1                   	// #1
  404414:	97fffd93 	bl	403a60 <_int_free>
  404418:	f94032d9 	ldr	x25, [x22, #96]
  40441c:	f94446c1 	ldr	x1, [x22, #2184]
  404420:	17fffecf 	b	403f5c <sysmalloc+0x11c>
  404424:	f94002c3 	ldr	x3, [x22]
  404428:	aa1803e1 	mov	x1, x24
  40442c:	aa1903e0 	mov	x0, x25
  404430:	d1000462 	sub	x2, x3, #0x1
  404434:	ea190042 	ands	x2, x2, x25
  404438:	54000801 	b.ne	404538 <sysmalloc+0x6f8>  // b.any
  40443c:	528001c2 	mov	w2, #0xe                   	// #14
  404440:	a9061fe6 	stp	x6, x7, [sp, #96]
  404444:	940017af 	bl	40a300 <__madvise>
  404448:	a9461fe6 	ldp	x6, x7, [sp, #96]
  40444c:	17ffffac 	b	4042fc <sysmalloc+0x4bc>
  404450:	f94002c3 	ldr	x3, [x22]
  404454:	aa1703e1 	mov	x1, x23
  404458:	aa0403e0 	mov	x0, x4
  40445c:	d1000462 	sub	x2, x3, #0x1
  404460:	ea040042 	ands	x2, x2, x4
  404464:	54000721 	b.ne	404548 <sysmalloc+0x708>  // b.any
  404468:	528001c2 	mov	w2, #0xe                   	// #14
  40446c:	a90693e6 	stp	x6, x4, [sp, #104]
  404470:	f9003fe5 	str	x5, [sp, #120]
  404474:	940017a3 	bl	40a300 <__madvise>
  404478:	f94033f9 	ldr	x25, [sp, #96]
  40447c:	a94693e6 	ldp	x6, x4, [sp, #104]
  404480:	f9403fe5 	ldr	x5, [sp, #120]
  404484:	17ffffcd 	b	4043b8 <sysmalloc+0x578>
  404488:	52800003 	mov	w3, #0x0                   	// #0
  40448c:	91014340 	add	x0, x26, #0x50
  404490:	f9003019 	str	x25, [x0, #96]
  404494:	17ffff9f 	b	404310 <sysmalloc+0x4d0>
  404498:	aa1703e1 	mov	x1, x23
  40449c:	aa1403e0 	mov	x0, x20
  4044a0:	52800002 	mov	w2, #0x0                   	// #0
  4044a4:	97fffb63 	bl	403230 <sysmalloc_mmap.isra.0>
  4044a8:	b100041f 	cmn	x0, #0x1
  4044ac:	54fff020 	b.eq	4042b0 <sysmalloc+0x470>  // b.none
  4044b0:	a94573fb 	ldp	x27, x28, [sp, #80]
  4044b4:	17fffebf 	b	403fb0 <sysmalloc+0x170>
  4044b8:	f0000442 	adrp	x2, 48f000 <_IO_file_jumps+0x130>
  4044bc:	f9479042 	ldr	x2, [x2, #3872]
  4044c0:	d1000423 	sub	x3, x1, #0x1
  4044c4:	cb0103e1 	neg	x1, x1
  4044c8:	f9400058 	ldr	x24, [x2]
  4044cc:	8b000300 	add	x0, x24, x0
  4044d0:	8b030000 	add	x0, x0, x3
  4044d4:	8a010000 	and	x0, x0, x1
  4044d8:	cb180018 	sub	x24, x0, x24
  4044dc:	17ffff07 	b	4040f8 <sysmalloc+0x2b8>
  4044e0:	aa1503e2 	mov	x2, x21
  4044e4:	f90033f9 	str	x25, [sp, #96]
  4044e8:	17ffff33 	b	4041b4 <sysmalloc+0x374>
  4044ec:	b4fff564 	cbz	x4, 404398 <sysmalloc+0x558>
  4044f0:	f94033f9 	ldr	x25, [sp, #96]
  4044f4:	d2800017 	mov	x23, #0x0                   	// #0
  4044f8:	d2800005 	mov	x5, #0x0                   	// #0
  4044fc:	17ffffaf 	b	4043b8 <sysmalloc+0x578>
  404500:	d0000480 	adrp	x0, 496000 <__pthread_keys+0x39d0>
  404504:	39590000 	ldrb	w0, [x0, #1600]
  404508:	37000120 	tbnz	w0, #0, 40452c <sysmalloc+0x6ec>
  40450c:	d2800000 	mov	x0, #0x0                   	// #0
  404510:	a9068be6 	stp	x6, x2, [sp, #104]
  404514:	940017b3 	bl	40a3e0 <__sbrk>
  404518:	f90033f9 	str	x25, [sp, #96]
  40451c:	aa0003e4 	mov	x4, x0
  404520:	a9468be6 	ldp	x6, x2, [sp, #104]
  404524:	b100041f 	cmn	x0, #0x1
  404528:	54fffe21 	b.ne	4044ec <sysmalloc+0x6ac>  // b.any
  40452c:	f9403059 	ldr	x25, [x2, #96]
  404530:	f9444441 	ldr	x1, [x2, #2184]
  404534:	17fffe8a 	b	403f5c <sysmalloc+0x11c>
  404538:	cb0303e3 	neg	x3, x3
  40453c:	8b020301 	add	x1, x24, x2
  404540:	8a190060 	and	x0, x3, x25
  404544:	17ffffbe 	b	40443c <sysmalloc+0x5fc>
  404548:	cb0303e3 	neg	x3, x3
  40454c:	8b0202e1 	add	x1, x23, x2
  404550:	8a040060 	and	x0, x3, x4
  404554:	17ffffc5 	b	404468 <sysmalloc+0x628>
  404558:	b0000263 	adrp	x3, 451000 <__PRETTY_FUNCTION__.1+0x1308>
  40455c:	f0000241 	adrp	x1, 44f000 <_Unwind_Find_FDE+0x430>
  404560:	90000260 	adrp	x0, 450000 <__PRETTY_FUNCTION__.1+0x308>
  404564:	91038063 	add	x3, x3, #0xe0
  404568:	91362021 	add	x1, x1, #0xd88
  40456c:	91190000 	add	x0, x0, #0x640
  404570:	52814442 	mov	w2, #0xa22                 	// #2594
  404574:	9400212f 	bl	40ca30 <__libc_assert_fail>
  404578:	b0000263 	adrp	x3, 451000 <__PRETTY_FUNCTION__.1+0x1308>
  40457c:	f0000241 	adrp	x1, 44f000 <_Unwind_Find_FDE+0x430>
  404580:	90000260 	adrp	x0, 450000 <__PRETTY_FUNCTION__.1+0x308>
  404584:	91038063 	add	x3, x3, #0xe0
  404588:	91362021 	add	x1, x1, #0xd88
  40458c:	911ba000 	add	x0, x0, #0x6e8
  404590:	52814502 	mov	w2, #0xa28                 	// #2600
  404594:	94002127 	bl	40ca30 <__libc_assert_fail>
  404598:	90000260 	adrp	x0, 450000 <__PRETTY_FUNCTION__.1+0x308>
  40459c:	911ca000 	add	x0, x0, #0x728
  4045a0:	97fff598 	bl	401c00 <malloc_printerr>
  4045a4:	b0000263 	adrp	x3, 451000 <__PRETTY_FUNCTION__.1+0x1308>
  4045a8:	f0000241 	adrp	x1, 44f000 <_Unwind_Find_FDE+0x430>
  4045ac:	90000260 	adrp	x0, 450000 <__PRETTY_FUNCTION__.1+0x308>
  4045b0:	91038063 	add	x3, x3, #0xe0
  4045b4:	91362021 	add	x1, x1, #0xd88
  4045b8:	911d8000 	add	x0, x0, #0x760
  4045bc:	52816342 	mov	w2, #0xb1a                 	// #2842
  4045c0:	9400211c 	bl	40ca30 <__libc_assert_fail>
  4045c4:	b0000263 	adrp	x3, 451000 <__PRETTY_FUNCTION__.1+0x1308>
  4045c8:	f0000241 	adrp	x1, 44f000 <_Unwind_Find_FDE+0x430>
  4045cc:	90000260 	adrp	x0, 450000 <__PRETTY_FUNCTION__.1+0x308>
  4045d0:	91038063 	add	x3, x3, #0xe0
  4045d4:	91362021 	add	x1, x1, #0xd88
  4045d8:	911d4000 	add	x0, x0, #0x750
  4045dc:	52815fe2 	mov	w2, #0xaff                 	// #2815
  4045e0:	94002114 	bl	40ca30 <__libc_assert_fail>

00000000004045e4 <_int_malloc>:
  4045e4:	a9b87bfd 	stp	x29, x30, [sp, #-128]!
  4045e8:	910003fd 	mov	x29, sp
  4045ec:	a90153f3 	stp	x19, x20, [sp, #16]
  4045f0:	b7f82981 	tbnz	x1, #63, 404b20 <_int_malloc+0x53c>
  4045f4:	a9025bf5 	stp	x21, x22, [sp, #32]
  4045f8:	aa0103f5 	mov	x21, x1
  4045fc:	a90363f7 	stp	x23, x24, [sp, #48]
  404600:	a9046bf9 	stp	x25, x26, [sp, #64]
  404604:	aa0003f9 	mov	x25, x0
  404608:	a90573fb 	stp	x27, x28, [sp, #80]
  40460c:	91005c3c 	add	x28, x1, #0x17
  404610:	f1007f9f 	cmp	x28, #0x1f
  404614:	54001a29 	b.ls	404958 <_int_malloc+0x374>  // b.plast
  404618:	927cef9c 	and	x28, x28, #0xfffffffffffffff0
  40461c:	b4002980 	cbz	x0, 404b4c <_int_malloc+0x568>
  404620:	d0000498 	adrp	x24, 496000 <__pthread_keys+0x39d0>
  404624:	9118c300 	add	x0, x24, #0x630
  404628:	39401000 	ldrb	w0, [x0, #4]
  40462c:	eb00039f 	cmp	x28, x0
  404630:	54000e08 	b.hi	4047f0 <_int_malloc+0x20c>  // b.pmore
  404634:	53047f9a 	lsr	w26, w28, #4
  404638:	51000b57 	sub	w23, w26, #0x2
  40463c:	d37d6f56 	ubfiz	x22, x26, #3, #28
  404640:	8b374f37 	add	x23, x25, w23, uxtw #3
  404644:	f9400af3 	ldr	x19, [x23, #16]
  404648:	b4002153 	cbz	x19, 404a70 <_int_malloc+0x48c>
  40464c:	f2400e7f 	tst	x19, #0xf
  404650:	54003f61 	b.ne	404e3c <_int_malloc+0x858>  // b.any
  404654:	f0000440 	adrp	x0, 48f000 <_IO_file_jumps+0x130>
  404658:	f9463000 	ldr	x0, [x0, #3168]
  40465c:	f90037e0 	str	x0, [sp, #104]
  404660:	8b160336 	add	x22, x25, x22
  404664:	39400000 	ldrb	w0, [x0]
  404668:	34000b60 	cbz	w0, 4047d4 <_int_malloc+0x1f0>
  40466c:	f9400a60 	ldr	x0, [x19, #16]
  404670:	91004274 	add	x20, x19, #0x10
  404674:	ca543000 	eor	x0, x0, x20, lsr #12
  404678:	f9000ae0 	str	x0, [x23, #16]
  40467c:	f9400660 	ldr	x0, [x19, #8]
  404680:	6b40135f 	cmp	w26, w0, lsr #4
  404684:	540039e1 	b.ne	404dc0 <_int_malloc+0x7dc>  // b.any
  404688:	d53bd053 	mrs	x19, tpidr_el0
  40468c:	d100479c 	sub	x28, x28, #0x11
  404690:	91400279 	add	x25, x19, #0x0, lsl #12
  404694:	9100c339 	add	x25, x25, #0x30
  404698:	d344ff93 	lsr	x19, x28, #4
  40469c:	f9400720 	ldr	x0, [x25, #8]
  4046a0:	b4002200 	cbz	x0, 404ae0 <_int_malloc+0x4fc>
  4046a4:	9000047a 	adrp	x26, 490000 <.got.plt+0x18>
  4046a8:	9101435a 	add	x26, x26, #0x50
  4046ac:	f9403741 	ldr	x1, [x26, #104]
  4046b0:	eb13003f 	cmp	x1, x19
  4046b4:	54002169 	b.ls	404ae0 <_int_malloc+0x4fc>  // b.plast
  4046b8:	f9403f41 	ldr	x1, [x26, #120]
  4046bc:	9118c302 	add	x2, x24, #0x630
  4046c0:	78737800 	ldrh	w0, [x0, x19, lsl #1]
  4046c4:	f9003be2 	str	x2, [sp, #112]
  4046c8:	d37df262 	lsl	x2, x19, #3
  4046cc:	f9003fe2 	str	x2, [sp, #120]
  4046d0:	d37ffa73 	lsl	x19, x19, #1
  4046d4:	eb00003f 	cmp	x1, x0
  4046d8:	540002e8 	b.hi	404734 <_int_malloc+0x150>  // b.pmore
  4046dc:	14000101 	b	404ae0 <_int_malloc+0x4fc>
  4046e0:	f9400b60 	ldr	x0, [x27, #16]
  4046e4:	91004364 	add	x4, x27, #0x10
  4046e8:	d34cfc85 	lsr	x5, x4, #12
  4046ec:	ca050000 	eor	x0, x0, x5
  4046f0:	f9000ae0 	str	x0, [x23, #16]
  4046f4:	a9470be0 	ldp	x0, x2, [sp, #112]
  4046f8:	f9400721 	ldr	x1, [x25, #8]
  4046fc:	f9403f46 	ldr	x6, [x26, #120]
  404700:	8b020022 	add	x2, x1, x2
  404704:	f9400400 	ldr	x0, [x0, #8]
  404708:	f9000f60 	str	x0, [x27, #24]
  40470c:	f9404040 	ldr	x0, [x2, #128]
  404710:	ca050000 	eor	x0, x0, x5
  404714:	f9000b60 	str	x0, [x27, #16]
  404718:	f9004044 	str	x4, [x2, #128]
  40471c:	78736820 	ldrh	w0, [x1, x19]
  404720:	11000400 	add	w0, w0, #0x1
  404724:	12003c00 	and	w0, w0, #0xffff
  404728:	78336820 	strh	w0, [x1, x19]
  40472c:	eb2020df 	cmp	x6, w0, uxth
  404730:	54001d89 	b.ls	404ae0 <_int_malloc+0x4fc>  // b.plast
  404734:	f9400afb 	ldr	x27, [x23, #16]
  404738:	b4001d5b 	cbz	x27, 404ae0 <_int_malloc+0x4fc>
  40473c:	f2400f7f 	tst	x27, #0xf
  404740:	54002e21 	b.ne	404d04 <_int_malloc+0x720>  // b.any
  404744:	f94037e0 	ldr	x0, [sp, #104]
  404748:	39400000 	ldrb	w0, [x0]
  40474c:	35fffca0 	cbnz	w0, 4046e0 <_int_malloc+0xfc>
  404750:	f9400b60 	ldr	x0, [x27, #16]
  404754:	9100437c 	add	x28, x27, #0x10
  404758:	d34cff82 	lsr	x2, x28, #12
  40475c:	ca000041 	eor	x1, x2, x0
  404760:	eb00005f 	cmp	x2, x0
  404764:	540001c1 	b.ne	40479c <_int_malloc+0x1b8>  // b.any
  404768:	aa1603e2 	mov	x2, x22
  40476c:	aa1b03e0 	mov	x0, x27
  404770:	94011278 	bl	449150 <__aarch64_cas8_acq>
  404774:	eb00037f 	cmp	x27, x0
  404778:	54001c80 	b.eq	404b08 <_int_malloc+0x524>  // b.none
  40477c:	b4001b20 	cbz	x0, 404ae0 <_int_malloc+0x4fc>
  404780:	aa0003fb 	mov	x27, x0
  404784:	9100437c 	add	x28, x27, #0x10
  404788:	f9400b60 	ldr	x0, [x27, #16]
  40478c:	d34cff82 	lsr	x2, x28, #12
  404790:	ca000041 	eor	x1, x2, x0
  404794:	eb00005f 	cmp	x2, x0
  404798:	54fffe80 	b.eq	404768 <_int_malloc+0x184>  // b.none
  40479c:	f2400c3f 	tst	x1, #0xf
  4047a0:	54fffe40 	b.eq	404768 <_int_malloc+0x184>  // b.none
  4047a4:	90000260 	adrp	x0, 450000 <__PRETTY_FUNCTION__.1+0x308>
  4047a8:	911f4000 	add	x0, x0, #0x7d0
  4047ac:	97fff515 	bl	401c00 <malloc_printerr>
  4047b0:	f2400c3f 	tst	x1, #0xf
  4047b4:	54ffff81 	b.ne	4047a4 <_int_malloc+0x1c0>  // b.any
  4047b8:	aa1603e2 	mov	x2, x22
  4047bc:	aa1303e0 	mov	x0, x19
  4047c0:	94011264 	bl	449150 <__aarch64_cas8_acq>
  4047c4:	eb00027f 	cmp	x19, x0
  4047c8:	54fff5a0 	b.eq	40467c <_int_malloc+0x98>  // b.none
  4047cc:	b4001520 	cbz	x0, 404a70 <_int_malloc+0x48c>
  4047d0:	aa0003f3 	mov	x19, x0
  4047d4:	f9400a60 	ldr	x0, [x19, #16]
  4047d8:	91004274 	add	x20, x19, #0x10
  4047dc:	d34cfe82 	lsr	x2, x20, #12
  4047e0:	ca000041 	eor	x1, x2, x0
  4047e4:	eb00005f 	cmp	x2, x0
  4047e8:	54fffe80 	b.eq	4047b8 <_int_malloc+0x1d4>  // b.none
  4047ec:	17fffff1 	b	4047b0 <_int_malloc+0x1cc>
  4047f0:	f10fff9f 	cmp	x28, #0x3ff
  4047f4:	54003949 	b.ls	404f1c <_int_malloc+0x938>  // b.plast
  4047f8:	d346ff9a 	lsr	x26, x28, #6
  4047fc:	1100c35a 	add	w26, w26, #0x30
  404800:	f130ff9f 	cmp	x28, #0xc3f
  404804:	540000a9 	b.ls	404818 <_int_malloc+0x234>  // b.plast
  404808:	d349ff9a 	lsr	x26, x28, #9
  40480c:	f100535f 	cmp	x26, #0x14
  404810:	54002648 	b.hi	404cd8 <_int_malloc+0x6f4>  // b.pmore
  404814:	11016f5a 	add	w26, w26, #0x5b
  404818:	91002320 	add	x0, x25, #0x8
  40481c:	b9400000 	ldr	w0, [x0]
  404820:	35001300 	cbnz	w0, 404a80 <_int_malloc+0x49c>
  404824:	d53bd053 	mrs	x19, tpidr_el0
  404828:	d1004797 	sub	x23, x28, #0x11
  40482c:	91400260 	add	x0, x19, #0x0, lsl #12
  404830:	9100c000 	add	x0, x0, #0x30
  404834:	d280001b 	mov	x27, #0x0                   	// #0
  404838:	d344fef7 	lsr	x23, x23, #4
  40483c:	f9400400 	ldr	x0, [x0, #8]
  404840:	b40000a0 	cbz	x0, 404854 <_int_malloc+0x270>
  404844:	90000460 	adrp	x0, 490000 <.got.plt+0x18>
  404848:	f9405c00 	ldr	x0, [x0, #184]
  40484c:	eb17001f 	cmp	x0, x23
  404850:	9a9f839b 	csel	x27, x28, xzr, hi	// hi = pmore
  404854:	f9403f23 	ldr	x3, [x25, #120]
  404858:	91018336 	add	x22, x25, #0x60
  40485c:	d2800004 	mov	x4, #0x0                   	// #0
  404860:	eb16007f 	cmp	x3, x22
  404864:	54001da0 	b.eq	404c18 <_int_malloc+0x634>  // b.none
  404868:	52800006 	mov	w6, #0x0                   	// #0
  40486c:	52800007 	mov	w7, #0x0                   	// #0
  404870:	f9400460 	ldr	x0, [x3, #8]
  404874:	927df000 	and	x0, x0, #0xfffffffffffffff8
  404878:	8b000065 	add	x5, x3, x0
  40487c:	f100401f 	cmp	x0, #0x10
  404880:	540014a9 	b.ls	404b14 <_int_malloc+0x530>  // b.plast
  404884:	f9444722 	ldr	x2, [x25, #2184]
  404888:	eb00005f 	cmp	x2, x0
  40488c:	54001443 	b.cc	404b14 <_int_malloc+0x530>  // b.lo, b.ul, b.last
  404890:	f94004a1 	ldr	x1, [x5, #8]
  404894:	eb01005f 	cmp	x2, x1
  404898:	fa4f2820 	ccmp	x1, #0xf, #0x0, cs	// cs = hs, nlast
  40489c:	540017a9 	b.ls	404b90 <_int_malloc+0x5ac>  // b.plast
  4048a0:	f94000a2 	ldr	x2, [x5]
  4048a4:	927df042 	and	x2, x2, #0xfffffffffffffff8
  4048a8:	eb00005f 	cmp	x2, x0
  4048ac:	54002901 	b.ne	404dcc <_int_malloc+0x7e8>  // b.any
  4048b0:	f9400c62 	ldr	x2, [x3, #24]
  4048b4:	f9400848 	ldr	x8, [x2, #16]
  4048b8:	eb03011f 	cmp	x8, x3
  4048bc:	540021e1 	b.ne	404cf8 <_int_malloc+0x714>  // b.any
  4048c0:	f9400868 	ldr	x8, [x3, #16]
  4048c4:	eb16011f 	cmp	x8, x22
  4048c8:	54002181 	b.ne	404cf8 <_int_malloc+0x714>  // b.any
  4048cc:	37002be1 	tbnz	w1, #0, 404e48 <_int_malloc+0x864>
  4048d0:	f10fff9f 	cmp	x28, #0x3ff
  4048d4:	fa569040 	ccmp	x2, x22, #0x0, ls	// ls = plast
  4048d8:	54002520 	b.eq	404d7c <_int_malloc+0x798>  // b.none
  4048dc:	f9000ec2 	str	x2, [x22, #24]
  4048e0:	f9000856 	str	x22, [x2, #16]
  4048e4:	eb00039f 	cmp	x28, x0
  4048e8:	54000d20 	b.eq	404a8c <_int_malloc+0x4a8>  // b.none
  4048ec:	f10ffc1f 	cmp	x0, #0x3ff
  4048f0:	54001569 	b.ls	404b9c <_int_malloc+0x5b8>  // b.plast
  4048f4:	d346fc05 	lsr	x5, x0, #6
  4048f8:	f130fc1f 	cmp	x0, #0xc3f
  4048fc:	54002369 	b.ls	404d68 <_int_malloc+0x784>  // b.plast
  404900:	d349fc05 	lsr	x5, x0, #9
  404904:	f10050bf 	cmp	x5, #0x14
  404908:	54002fa8 	b.hi	404efc <_int_malloc+0x918>  // b.pmore
  40490c:	11016ca5 	add	w5, w5, #0x5b
  404910:	531f78a1 	lsl	w1, w5, #1
  404914:	11003021 	add	w1, w1, #0xc
  404918:	937d7c21 	sbfiz	x1, x1, #3, #32
  40491c:	8b010321 	add	x1, x25, x1
  404920:	f85f0428 	ldr	x8, [x1], #-16
  404924:	eb08003f 	cmp	x1, x8
  404928:	54002960 	b.eq	404e54 <_int_malloc+0x870>  // b.none
  40492c:	f9400c22 	ldr	x2, [x1, #24]
  404930:	b2400000 	orr	x0, x0, #0x1
  404934:	f9400449 	ldr	x9, [x2, #8]
  404938:	37105949 	tbnz	w9, #2, 405460 <_int_malloc+0xe7c>
  40493c:	eb00013f 	cmp	x9, x0
  404940:	54003049 	b.ls	404f48 <_int_malloc+0x964>  // b.plast
  404944:	f9401500 	ldr	x0, [x8, #40]
  404948:	a9020068 	stp	x8, x0, [x3, #32]
  40494c:	f9001003 	str	x3, [x0, #32]
  404950:	f9001503 	str	x3, [x8, #40]
  404954:	14000098 	b	404bb4 <_int_malloc+0x5d0>
  404958:	b4000f80 	cbz	x0, 404b48 <_int_malloc+0x564>
  40495c:	d0000498 	adrp	x24, 496000 <__pthread_keys+0x39d0>
  404960:	9118c300 	add	x0, x24, #0x630
  404964:	39401000 	ldrb	w0, [x0, #4]
  404968:	71007c1f 	cmp	w0, #0x1f
  40496c:	54000748 	b.hi	404a54 <_int_malloc+0x470>  // b.pmore
  404970:	d2801001 	mov	x1, #0x80                  	// #128
  404974:	5280005a 	mov	w26, #0x2                   	// #2
  404978:	d280041c 	mov	x28, #0x20                  	// #32
  40497c:	8b010321 	add	x1, x25, x1
  404980:	d1004021 	sub	x1, x1, #0x10
  404984:	f9400c20 	ldr	x0, [x1, #24]
  404988:	eb00003f 	cmp	x1, x0
  40498c:	54fff4c0 	b.eq	404824 <_int_malloc+0x240>  // b.none
  404990:	f9400c02 	ldr	x2, [x0, #24]
  404994:	f9400843 	ldr	x3, [x2, #16]
  404998:	eb00007f 	cmp	x3, x0
  40499c:	54002aa1 	b.ne	404ef0 <_int_malloc+0x90c>  // b.any
  4049a0:	8b1c0004 	add	x4, x0, x28
  4049a4:	90000467 	adrp	x7, 490000 <.got.plt+0x18>
  4049a8:	9103c0e5 	add	x5, x7, #0xf0
  4049ac:	f9400483 	ldr	x3, [x4, #8]
  4049b0:	b2400063 	orr	x3, x3, #0x1
  4049b4:	f9000483 	str	x3, [x4, #8]
  4049b8:	f9000c22 	str	x2, [x1, #24]
  4049bc:	f9000841 	str	x1, [x2, #16]
  4049c0:	eb05033f 	cmp	x25, x5
  4049c4:	54000080 	b.eq	4049d4 <_int_malloc+0x3f0>  // b.none
  4049c8:	f9400402 	ldr	x2, [x0, #8]
  4049cc:	b27e0042 	orr	x2, x2, #0x4
  4049d0:	f9000402 	str	x2, [x0, #8]
  4049d4:	d53bd042 	mrs	x2, tpidr_el0
  4049d8:	91400042 	add	x2, x2, #0x0, lsl #12
  4049dc:	9100c042 	add	x2, x2, #0x30
  4049e0:	f9400446 	ldr	x6, [x2, #8]
  4049e4:	b40002a6 	cbz	x6, 404a38 <_int_malloc+0x454>
  4049e8:	90000462 	adrp	x2, 490000 <.got.plt+0x18>
  4049ec:	91014042 	add	x2, x2, #0x50
  4049f0:	d1004785 	sub	x5, x28, #0x11
  4049f4:	f9403443 	ldr	x3, [x2, #104]
  4049f8:	d344fca5 	lsr	x5, x5, #4
  4049fc:	eb05007f 	cmp	x3, x5
  404a00:	540001c9 	b.ls	404a38 <_int_malloc+0x454>  // b.plast
  404a04:	d37ff8a3 	lsl	x3, x5, #1
  404a08:	f9403c44 	ldr	x4, [x2, #120]
  404a0c:	8b0300cb 	add	x11, x6, x3
  404a10:	786368c8 	ldrh	w8, [x6, x3]
  404a14:	2a0803e3 	mov	w3, w8
  404a18:	14000005 	b	404a2c <_int_malloc+0x448>
  404a1c:	f9400c22 	ldr	x2, [x1, #24]
  404a20:	eb02003f 	cmp	x1, x2
  404a24:	540000a0 	b.eq	404a38 <_int_malloc+0x454>  // b.none
  404a28:	b5001d82 	cbnz	x2, 404dd8 <_int_malloc+0x7f4>
  404a2c:	eb04007f 	cmp	x3, x4
  404a30:	54ffff63 	b.cc	404a1c <_int_malloc+0x438>  // b.lo, b.ul, b.last
  404a34:	d503201f 	nop
  404a38:	b9463301 	ldr	w1, [x24, #1584]
  404a3c:	91004014 	add	x20, x0, #0x10
  404a40:	34000541 	cbz	w1, 404ae8 <_int_malloc+0x504>
  404a44:	aa1503e2 	mov	x2, x21
  404a48:	52001c21 	eor	w1, w1, #0xff
  404a4c:	aa1403e0 	mov	x0, x20
  404a50:	1400004a 	b	404b78 <_int_malloc+0x594>
  404a54:	52800017 	mov	w23, #0x0                   	// #0
  404a58:	d2800216 	mov	x22, #0x10                  	// #16
  404a5c:	8b374f37 	add	x23, x25, w23, uxtw #3
  404a60:	5280005a 	mov	w26, #0x2                   	// #2
  404a64:	d280041c 	mov	x28, #0x20                  	// #32
  404a68:	f9400af3 	ldr	x19, [x23, #16]
  404a6c:	b5ffdf13 	cbnz	x19, 40464c <_int_malloc+0x68>
  404a70:	531f7b42 	lsl	w2, w26, #1
  404a74:	11003041 	add	w1, w2, #0xc
  404a78:	d37df021 	lsl	x1, x1, #3
  404a7c:	17ffffc0 	b	40497c <_int_malloc+0x398>
  404a80:	aa1903e0 	mov	x0, x25
  404a84:	97fff66f 	bl	402440 <malloc_consolidate>
  404a88:	17ffff67 	b	404824 <_int_malloc+0x240>
  404a8c:	b2400021 	orr	x1, x1, #0x1
  404a90:	90000460 	adrp	x0, 490000 <.got.plt+0x18>
  404a94:	9103c000 	add	x0, x0, #0xf0
  404a98:	f90004a1 	str	x1, [x5, #8]
  404a9c:	eb00033f 	cmp	x25, x0
  404aa0:	54000080 	b.eq	404ab0 <_int_malloc+0x4cc>  // b.none
  404aa4:	f9400460 	ldr	x0, [x3, #8]
  404aa8:	b27e0000 	orr	x0, x0, #0x4
  404aac:	f9000460 	str	x0, [x3, #8]
  404ab0:	91004074 	add	x20, x3, #0x10
  404ab4:	b400017b 	cbz	x27, 404ae0 <_int_malloc+0x4fc>
  404ab8:	91400261 	add	x1, x19, #0x0, lsl #12
  404abc:	9100c021 	add	x1, x1, #0x30
  404ac0:	90000460 	adrp	x0, 490000 <.got.plt+0x18>
  404ac4:	d37ffae2 	lsl	x2, x23, #1
  404ac8:	f9406405 	ldr	x5, [x0, #200]
  404acc:	f9400421 	ldr	x1, [x1, #8]
  404ad0:	78626820 	ldrh	w0, [x1, x2]
  404ad4:	eb2020bf 	cmp	x5, w0, uxth
  404ad8:	54001288 	b.hi	404d28 <_int_malloc+0x744>  // b.pmore
  404adc:	d503201f 	nop
  404ae0:	b9463301 	ldr	w1, [x24, #1584]
  404ae4:	35fffb01 	cbnz	w1, 404a44 <_int_malloc+0x460>
  404ae8:	a9425bf5 	ldp	x21, x22, [sp, #32]
  404aec:	a94363f7 	ldp	x23, x24, [sp, #48]
  404af0:	a9446bf9 	ldp	x25, x26, [sp, #64]
  404af4:	a94573fb 	ldp	x27, x28, [sp, #80]
  404af8:	aa1403e0 	mov	x0, x20
  404afc:	a94153f3 	ldp	x19, x20, [sp, #16]
  404b00:	a8c87bfd 	ldp	x29, x30, [sp], #128
  404b04:	d65f03c0 	ret
  404b08:	aa1c03e4 	mov	x4, x28
  404b0c:	d34cff85 	lsr	x5, x28, #12
  404b10:	17fffef9 	b	4046f4 <_int_malloc+0x110>
  404b14:	90000260 	adrp	x0, 450000 <__PRETTY_FUNCTION__.1+0x308>
  404b18:	91222000 	add	x0, x0, #0x888
  404b1c:	97fff439 	bl	401c00 <malloc_printerr>
  404b20:	d2a00000 	movz	x0, #0x0, lsl #16
  404b24:	f2800500 	movk	x0, #0x28
  404b28:	d53bd041 	mrs	x1, tpidr_el0
  404b2c:	52800182 	mov	w2, #0xc                   	// #12
  404b30:	d2800014 	mov	x20, #0x0                   	// #0
  404b34:	b8206822 	str	w2, [x1, x0]
  404b38:	aa1403e0 	mov	x0, x20
  404b3c:	a94153f3 	ldp	x19, x20, [sp, #16]
  404b40:	a8c87bfd 	ldp	x29, x30, [sp], #128
  404b44:	d65f03c0 	ret
  404b48:	d280041c 	mov	x28, #0x20                  	// #32
  404b4c:	aa1c03e0 	mov	x0, x28
  404b50:	d2800001 	mov	x1, #0x0                   	// #0
  404b54:	97fffcbb 	bl	403e40 <sysmalloc>
  404b58:	aa0003f4 	mov	x20, x0
  404b5c:	b4000da0 	cbz	x0, 404d10 <_int_malloc+0x72c>
  404b60:	d0000481 	adrp	x1, 496000 <__pthread_keys+0x39d0>
  404b64:	b9463021 	ldr	w1, [x1, #1584]
  404b68:	34fffc01 	cbz	w1, 404ae8 <_int_malloc+0x504>
  404b6c:	aa1503e2 	mov	x2, x21
  404b70:	52001c21 	eor	w1, w1, #0xff
  404b74:	d503201f 	nop
  404b78:	97ffedbe 	bl	400270 <.plt+0x30>
  404b7c:	a9425bf5 	ldp	x21, x22, [sp, #32]
  404b80:	a94363f7 	ldp	x23, x24, [sp, #48]
  404b84:	a9446bf9 	ldp	x25, x26, [sp, #64]
  404b88:	a94573fb 	ldp	x27, x28, [sp, #80]
  404b8c:	17ffffdb 	b	404af8 <_int_malloc+0x514>
  404b90:	90000260 	adrp	x0, 450000 <__PRETTY_FUNCTION__.1+0x308>
  404b94:	9122c000 	add	x0, x0, #0x8b0
  404b98:	97fff41a 	bl	401c00 <malloc_printerr>
  404b9c:	53047c05 	lsr	w5, w0, #4
  404ba0:	531f78a2 	lsl	w2, w5, #1
  404ba4:	11003042 	add	w2, w2, #0xc
  404ba8:	93407c42 	sxtw	x2, w2
  404bac:	8b020f22 	add	x2, x25, x2, lsl #3
  404bb0:	f85f0441 	ldr	x1, [x2], #-16
  404bb4:	13057ca0 	asr	w0, w5, #5
  404bb8:	52800028 	mov	w8, #0x1                   	// #1
  404bbc:	91000484 	add	x4, x4, #0x1
  404bc0:	8b20cb20 	add	x0, x25, w0, sxtw #2
  404bc4:	1ac52108 	lsl	w8, w8, w5
  404bc8:	b9486005 	ldr	w5, [x0, #2144]
  404bcc:	2a0800a5 	orr	w5, w5, w8
  404bd0:	b9086005 	str	w5, [x0, #2144]
  404bd4:	a9010861 	stp	x1, x2, [x3, #16]
  404bd8:	f9000c23 	str	x3, [x1, #24]
  404bdc:	f9000843 	str	x3, [x2, #16]
  404be0:	34000727 	cbz	w7, 404cc4 <_int_malloc+0x6e0>
  404be4:	90000460 	adrp	x0, 490000 <.got.plt+0x18>
  404be8:	f9406800 	ldr	x0, [x0, #208]
  404bec:	f100001f 	cmp	x0, #0x0
  404bf0:	fa441002 	ccmp	x0, x4, #0x2, ne	// ne = any
  404bf4:	54002ae3 	b.cc	405150 <_int_malloc+0xb6c>  // b.lo, b.ul, b.last
  404bf8:	110004c6 	add	w6, w6, #0x1
  404bfc:	5284e1e0 	mov	w0, #0x270f                	// #9999
  404c00:	6b0000df 	cmp	w6, w0
  404c04:	54002eec 	b.gt	4051e0 <_int_malloc+0xbfc>
  404c08:	f9400ec3 	ldr	x3, [x22, #24]
  404c0c:	eb16007f 	cmp	x3, x22
  404c10:	54ffe301 	b.ne	404870 <_int_malloc+0x28c>  // b.any
  404c14:	35002e67 	cbnz	w7, 4051e0 <_int_malloc+0xbfc>
  404c18:	531f7b42 	lsl	w2, w26, #1
  404c1c:	f10fff9f 	cmp	x28, #0x3ff
  404c20:	54000149 	b.ls	404c48 <_int_malloc+0x664>  // b.plast
  404c24:	531f7b42 	lsl	w2, w26, #1
  404c28:	11003041 	add	w1, w2, #0xc
  404c2c:	8b010f21 	add	x1, x25, x1, lsl #3
  404c30:	f85f0420 	ldr	x0, [x1], #-16
  404c34:	eb01001f 	cmp	x0, x1
  404c38:	54000080 	b.eq	404c48 <_int_malloc+0x664>  // b.none
  404c3c:	f9400403 	ldr	x3, [x0, #8]
  404c40:	eb03039f 	cmp	x28, x3
  404c44:	54002f89 	b.ls	405234 <_int_malloc+0xc50>  // b.plast
  404c48:	928001e5 	mov	x5, #0xfffffffffffffff0    	// #-16
  404c4c:	52800034 	mov	w20, #0x1                   	// #1
  404c50:	11000741 	add	w1, w26, #0x1
  404c54:	11003842 	add	w2, w2, #0xe
  404c58:	53057c20 	lsr	w0, w1, #5
  404c5c:	8b224ca2 	add	x2, x5, w2, uxtw #3
  404c60:	91086000 	add	x0, x0, #0x218
  404c64:	8b020322 	add	x2, x25, x2
  404c68:	53057c26 	lsr	w6, w1, #5
  404c6c:	1ac12281 	lsl	w1, w20, w1
  404c70:	b8607b23 	ldr	w3, [x25, x0, lsl #2]
  404c74:	d503201f 	nop
  404c78:	51000420 	sub	w0, w1, #0x1
  404c7c:	6b00007f 	cmp	w3, w0
  404c80:	540000a8 	b.hi	404c94 <_int_malloc+0x6b0>  // b.pmore
  404c84:	14000077 	b	404e60 <_int_malloc+0x87c>
  404c88:	91004042 	add	x2, x2, #0x10
  404c8c:	531f7821 	lsl	w1, w1, #1
  404c90:	34002981 	cbz	w1, 4051c0 <_int_malloc+0xbdc>
  404c94:	6a03003f 	tst	w1, w3
  404c98:	54ffff80 	b.eq	404c88 <_int_malloc+0x6a4>  // b.none
  404c9c:	f9400c5a 	ldr	x26, [x2, #24]
  404ca0:	eb1a005f 	cmp	x2, x26
  404ca4:	54001c81 	b.ne	405034 <_int_malloc+0xa50>  // b.any
  404ca8:	2a0603e0 	mov	w0, w6
  404cac:	0a210063 	bic	w3, w3, w1
  404cb0:	91086000 	add	x0, x0, #0x218
  404cb4:	91004042 	add	x2, x2, #0x10
  404cb8:	531f7821 	lsl	w1, w1, #1
  404cbc:	b8207b23 	str	w3, [x25, x0, lsl #2]
  404cc0:	17ffffee 	b	404c78 <_int_malloc+0x694>
  404cc4:	110004c6 	add	w6, w6, #0x1
  404cc8:	5284e1e0 	mov	w0, #0x270f                	// #9999
  404ccc:	6b0000df 	cmp	w6, w0
  404cd0:	54fff9cd 	b.le	404c08 <_int_malloc+0x624>
  404cd4:	17ffffd1 	b	404c18 <_int_malloc+0x634>
  404cd8:	d34cff9a 	lsr	x26, x28, #12
  404cdc:	f1002b5f 	cmp	x26, #0xa
  404ce0:	540006c9 	b.ls	404db8 <_int_malloc+0x7d4>  // b.plast
  404ce4:	d34fff9a 	lsr	x26, x28, #15
  404ce8:	f100135f 	cmp	x26, #0x4
  404cec:	54001228 	b.hi	404f30 <_int_malloc+0x94c>  // b.pmore
  404cf0:	1101df5a 	add	w26, w26, #0x77
  404cf4:	17fffec9 	b	404818 <_int_malloc+0x234>
  404cf8:	90000260 	adrp	x0, 450000 <__PRETTY_FUNCTION__.1+0x308>
  404cfc:	91244000 	add	x0, x0, #0x910
  404d00:	97fff3c0 	bl	401c00 <malloc_printerr>
  404d04:	90000260 	adrp	x0, 450000 <__PRETTY_FUNCTION__.1+0x308>
  404d08:	9120a000 	add	x0, x0, #0x828
  404d0c:	97fff3bd 	bl	401c00 <malloc_printerr>
  404d10:	a9425bf5 	ldp	x21, x22, [sp, #32]
  404d14:	d2800014 	mov	x20, #0x0                   	// #0
  404d18:	a94363f7 	ldp	x23, x24, [sp, #48]
  404d1c:	a9446bf9 	ldp	x25, x26, [sp, #64]
  404d20:	a94573fb 	ldp	x27, x28, [sp, #80]
  404d24:	17ffff85 	b	404b38 <_int_malloc+0x554>
  404d28:	d37df2e8 	lsl	x8, x23, #3
  404d2c:	9118c305 	add	x5, x24, #0x630
  404d30:	8b080027 	add	x7, x1, x8
  404d34:	11000400 	add	w0, w0, #0x1
  404d38:	f94004a5 	ldr	x5, [x5, #8]
  404d3c:	f9000c65 	str	x5, [x3, #24]
  404d40:	f94040e5 	ldr	x5, [x7, #128]
  404d44:	ca5430a5 	eor	x5, x5, x20, lsr #12
  404d48:	f9000865 	str	x5, [x3, #16]
  404d4c:	f9400ec3 	ldr	x3, [x22, #24]
  404d50:	f90040f4 	str	x20, [x7, #128]
  404d54:	78226820 	strh	w0, [x1, x2]
  404d58:	eb16007f 	cmp	x3, x22
  404d5c:	54002440 	b.eq	4051e4 <_int_malloc+0xc00>  // b.none
  404d60:	52800027 	mov	w7, #0x1                   	// #1
  404d64:	17fffec3 	b	404870 <_int_malloc+0x28c>
  404d68:	1100c0a5 	add	w5, w5, #0x30
  404d6c:	531f78a1 	lsl	w1, w5, #1
  404d70:	11003021 	add	w1, w1, #0xc
  404d74:	937d7c21 	sbfiz	x1, x1, #3, #32
  404d78:	17fffee9 	b	40491c <_int_malloc+0x338>
  404d7c:	f9403728 	ldr	x8, [x25, #104]
  404d80:	eb03011f 	cmp	x8, x3
  404d84:	54ffdac1 	b.ne	4048dc <_int_malloc+0x2f8>  // b.any
  404d88:	91008388 	add	x8, x28, #0x20
  404d8c:	eb00011f 	cmp	x8, x0
  404d90:	54002ee3 	b.cc	40536c <_int_malloc+0xd88>  // b.lo, b.ul, b.last
  404d94:	f9000ec2 	str	x2, [x22, #24]
  404d98:	f9000856 	str	x22, [x2, #16]
  404d9c:	eb00039f 	cmp	x28, x0
  404da0:	54ffe760 	b.eq	404a8c <_int_malloc+0x4a8>  // b.none
  404da4:	f10ffc1f 	cmp	x0, #0x3ff
  404da8:	54ffefa9 	b.ls	404b9c <_int_malloc+0x5b8>  // b.plast
  404dac:	d2808c01 	mov	x1, #0x460                 	// #1120
  404db0:	52800805 	mov	w5, #0x40                  	// #64
  404db4:	17fffeda 	b	40491c <_int_malloc+0x338>
  404db8:	1101bb5a 	add	w26, w26, #0x6e
  404dbc:	17fffe97 	b	404818 <_int_malloc+0x234>
  404dc0:	90000260 	adrp	x0, 450000 <__PRETTY_FUNCTION__.1+0x308>
  404dc4:	91200000 	add	x0, x0, #0x800
  404dc8:	97fff38e 	bl	401c00 <malloc_printerr>
  404dcc:	90000260 	adrp	x0, 450000 <__PRETTY_FUNCTION__.1+0x308>
  404dd0:	91236000 	add	x0, x0, #0x8d8
  404dd4:	97fff38b 	bl	401c00 <malloc_printerr>
  404dd8:	8b1c004a 	add	x10, x2, x28
  404ddc:	9103c0e3 	add	x3, x7, #0xf0
  404de0:	f9400c4d 	ldr	x13, [x2, #24]
  404de4:	f9400549 	ldr	x9, [x10, #8]
  404de8:	b2400129 	orr	x9, x9, #0x1
  404dec:	f9000549 	str	x9, [x10, #8]
  404df0:	eb03033f 	cmp	x25, x3
  404df4:	54000080 	b.eq	404e04 <_int_malloc+0x820>  // b.none
  404df8:	f9400443 	ldr	x3, [x2, #8]
  404dfc:	b27e0063 	orr	x3, x3, #0x4
  404e00:	f9000443 	str	x3, [x2, #8]
  404e04:	8b050cc3 	add	x3, x6, x5, lsl #3
  404e08:	9118c30a 	add	x10, x24, #0x630
  404e0c:	9100404c 	add	x12, x2, #0x10
  404e10:	11000508 	add	w8, w8, #0x1
  404e14:	12003d08 	and	w8, w8, #0xffff
  404e18:	f9404069 	ldr	x9, [x3, #128]
  404e1c:	f9000c2d 	str	x13, [x1, #24]
  404e20:	f940054a 	ldr	x10, [x10, #8]
  404e24:	f90009a1 	str	x1, [x13, #16]
  404e28:	ca4c3129 	eor	x9, x9, x12, lsr #12
  404e2c:	a9012849 	stp	x9, x10, [x2, #16]
  404e30:	f900406c 	str	x12, [x3, #128]
  404e34:	79000168 	strh	w8, [x11]
  404e38:	17fffef7 	b	404a14 <_int_malloc+0x430>
  404e3c:	90000260 	adrp	x0, 450000 <__PRETTY_FUNCTION__.1+0x308>
  404e40:	911e8000 	add	x0, x0, #0x7a0
  404e44:	97fff36f 	bl	401c00 <malloc_printerr>
  404e48:	90000260 	adrp	x0, 450000 <__PRETTY_FUNCTION__.1+0x308>
  404e4c:	91250000 	add	x0, x0, #0x940
  404e50:	97fff36c 	bl	401c00 <malloc_printerr>
  404e54:	aa0103e2 	mov	x2, x1
  404e58:	a9020c63 	stp	x3, x3, [x3, #32]
  404e5c:	17ffff56 	b	404bb4 <_int_malloc+0x5d0>
  404e60:	110004c1 	add	w1, w6, #0x1
  404e64:	110004c0 	add	w0, w6, #0x1
  404e68:	8b010b21 	add	x1, x25, x1, lsl #2
  404e6c:	14000005 	b	404e80 <_int_malloc+0x89c>
  404e70:	b9486023 	ldr	w3, [x1, #2144]
  404e74:	91001021 	add	x1, x1, #0x4
  404e78:	350009a3 	cbnz	w3, 404fac <_int_malloc+0x9c8>
  404e7c:	11000400 	add	w0, w0, #0x1
  404e80:	2a0003e6 	mov	w6, w0
  404e84:	71000c1f 	cmp	w0, #0x3
  404e88:	54ffff49 	b.ls	404e70 <_int_malloc+0x88c>  // b.plast
  404e8c:	f9403321 	ldr	x1, [x25, #96]
  404e90:	f9444722 	ldr	x2, [x25, #2184]
  404e94:	f9400420 	ldr	x0, [x1, #8]
  404e98:	927df000 	and	x0, x0, #0xfffffffffffffff8
  404e9c:	eb00005f 	cmp	x2, x0
  404ea0:	54001343 	b.cc	405108 <_int_malloc+0xb24>  // b.lo, b.ul, b.last
  404ea4:	91008382 	add	x2, x28, #0x20
  404ea8:	eb00005f 	cmp	x2, x0
  404eac:	540022c9 	b.ls	405304 <_int_malloc+0xd20>  // b.plast
  404eb0:	91002320 	add	x0, x25, #0x8
  404eb4:	f90037e4 	str	x4, [sp, #104]
  404eb8:	b9400000 	ldr	w0, [x0]
  404ebc:	340024a0 	cbz	w0, 405350 <_int_malloc+0xd6c>
  404ec0:	aa1903e0 	mov	x0, x25
  404ec4:	97fff55f 	bl	402440 <malloc_consolidate>
  404ec8:	f94037e4 	ldr	x4, [sp, #104]
  404ecc:	f10fff9f 	cmp	x28, #0x3ff
  404ed0:	54000908 	b.hi	404ff0 <_int_malloc+0xa0c>  // b.pmore
  404ed4:	f9400ec3 	ldr	x3, [x22, #24]
  404ed8:	53047f9a 	lsr	w26, w28, #4
  404edc:	928001e5 	mov	x5, #0xfffffffffffffff0    	// #-16
  404ee0:	eb16007f 	cmp	x3, x22
  404ee4:	54ffcc21 	b.ne	404868 <_int_malloc+0x284>  // b.any
  404ee8:	531f7b42 	lsl	w2, w26, #1
  404eec:	17ffff59 	b	404c50 <_int_malloc+0x66c>
  404ef0:	90000260 	adrp	x0, 450000 <__PRETTY_FUNCTION__.1+0x308>
  404ef4:	91216000 	add	x0, x0, #0x858
  404ef8:	97fff342 	bl	401c00 <malloc_printerr>
  404efc:	d34cfc05 	lsr	x5, x0, #12
  404f00:	f10028bf 	cmp	x5, #0xa
  404f04:	54000628 	b.hi	404fc8 <_int_malloc+0x9e4>  // b.pmore
  404f08:	1101b8a5 	add	w5, w5, #0x6e
  404f0c:	531f78a1 	lsl	w1, w5, #1
  404f10:	11003021 	add	w1, w1, #0xc
  404f14:	937d7c21 	sbfiz	x1, x1, #3, #32
  404f18:	17fffe81 	b	40491c <_int_malloc+0x338>
  404f1c:	53037f82 	lsr	w2, w28, #3
  404f20:	53047f9a 	lsr	w26, w28, #4
  404f24:	11003041 	add	w1, w2, #0xc
  404f28:	d37df021 	lsl	x1, x1, #3
  404f2c:	17fffe94 	b	40497c <_int_malloc+0x398>
  404f30:	d352ff9a 	lsr	x26, x28, #18
  404f34:	d2800040 	mov	x0, #0x2                   	// #2
  404f38:	eb00035f 	cmp	x26, x0
  404f3c:	9a80935a 	csel	x26, x26, x0, ls	// ls = plast
  404f40:	1101f35a 	add	w26, w26, #0x7c
  404f44:	17fffe35 	b	404818 <_int_malloc+0x234>
  404f48:	f9400501 	ldr	x1, [x8, #8]
  404f4c:	361000a1 	tbz	w1, #2, 404f60 <_int_malloc+0x97c>
  404f50:	1400012d 	b	405404 <_int_malloc+0xe20>
  404f54:	f9401108 	ldr	x8, [x8, #32]
  404f58:	f9400501 	ldr	x1, [x8, #8]
  404f5c:	37102341 	tbnz	w1, #2, 4053c4 <_int_malloc+0xde0>
  404f60:	eb01001f 	cmp	x0, x1
  404f64:	54ffff83 	b.cc	404f54 <_int_malloc+0x970>  // b.lo, b.ul, b.last
  404f68:	54000400 	b.eq	404fe8 <_int_malloc+0xa04>  // b.none
  404f6c:	f9401500 	ldr	x0, [x8, #40]
  404f70:	a9020068 	stp	x8, x0, [x3, #32]
  404f74:	f9401000 	ldr	x0, [x0, #32]
  404f78:	eb08001f 	cmp	x0, x8
  404f7c:	54000cc1 	b.ne	405114 <_int_malloc+0xb30>  // b.any
  404f80:	f9001503 	str	x3, [x8, #40]
  404f84:	aa0803e1 	mov	x1, x8
  404f88:	f9401460 	ldr	x0, [x3, #40]
  404f8c:	f9001003 	str	x3, [x0, #32]
  404f90:	f9400c22 	ldr	x2, [x1, #24]
  404f94:	f9400840 	ldr	x0, [x2, #16]
  404f98:	eb01001f 	cmp	x0, x1
  404f9c:	54ffe0c0 	b.eq	404bb4 <_int_malloc+0x5d0>  // b.none
  404fa0:	90000260 	adrp	x0, 450000 <__PRETTY_FUNCTION__.1+0x308>
  404fa4:	9127a000 	add	x0, x0, #0x9e8
  404fa8:	97fff316 	bl	401c00 <malloc_printerr>
  404fac:	531a6402 	lsl	w2, w0, #6
  404fb0:	d2800c00 	mov	x0, #0x60                  	// #96
  404fb4:	51000842 	sub	w2, w2, #0x2
  404fb8:	52800021 	mov	w1, #0x1                   	// #1
  404fbc:	8b224c02 	add	x2, x0, w2, uxtw #3
  404fc0:	8b020322 	add	x2, x25, x2
  404fc4:	17ffff34 	b	404c94 <_int_malloc+0x6b0>
  404fc8:	d34ffc05 	lsr	x5, x0, #15
  404fcc:	f10010bf 	cmp	x5, #0x4
  404fd0:	54000208 	b.hi	405010 <_int_malloc+0xa2c>  // b.pmore
  404fd4:	1101dca5 	add	w5, w5, #0x77
  404fd8:	531f78a1 	lsl	w1, w5, #1
  404fdc:	11003021 	add	w1, w1, #0xc
  404fe0:	937d7c21 	sbfiz	x1, x1, #3, #32
  404fe4:	17fffe4e 	b	40491c <_int_malloc+0x338>
  404fe8:	f9400901 	ldr	x1, [x8, #16]
  404fec:	17ffffe9 	b	404f90 <_int_malloc+0x9ac>
  404ff0:	d346ff9a 	lsr	x26, x28, #6
  404ff4:	f130ff9f 	cmp	x28, #0xc3f
  404ff8:	54000688 	b.hi	4050c8 <_int_malloc+0xae4>  // b.pmore
  404ffc:	f9400ec3 	ldr	x3, [x22, #24]
  405000:	1100c35a 	add	w26, w26, #0x30
  405004:	eb16007f 	cmp	x3, x22
  405008:	54ffc301 	b.ne	404868 <_int_malloc+0x284>  // b.any
  40500c:	17ffff06 	b	404c24 <_int_malloc+0x640>
  405010:	d352fc05 	lsr	x5, x0, #18
  405014:	d2800041 	mov	x1, #0x2                   	// #2
  405018:	eb0100bf 	cmp	x5, x1
  40501c:	9a8190a5 	csel	x5, x5, x1, ls	// ls = plast
  405020:	1101f0a5 	add	w5, w5, #0x7c
  405024:	531f78a1 	lsl	w1, w5, #1
  405028:	11003021 	add	w1, w1, #0xc
  40502c:	937d7c21 	sbfiz	x1, x1, #3, #32
  405030:	17fffe3b 	b	40491c <_int_malloc+0x338>
  405034:	f9400753 	ldr	x19, [x26, #8]
  405038:	927df273 	and	x19, x19, #0xfffffffffffffff8
  40503c:	eb13039f 	cmp	x28, x19
  405040:	54001d28 	b.hi	4053e4 <_int_malloc+0xe00>  // b.pmore
  405044:	cb1c0274 	sub	x20, x19, x28
  405048:	aa1a03e0 	mov	x0, x26
  40504c:	97fff4c9 	bl	402370 <unlink_chunk.isra.0>
  405050:	f1007e9f 	cmp	x20, #0x1f
  405054:	54000669 	b.ls	405120 <_int_malloc+0xb3c>  // b.plast
  405058:	f9400ac1 	ldr	x1, [x22, #16]
  40505c:	8b1c0340 	add	x0, x26, x28
  405060:	f9400c22 	ldr	x2, [x1, #24]
  405064:	eb16005f 	cmp	x2, x22
  405068:	54001481 	b.ne	4052f8 <_int_malloc+0xd14>  // b.any
  40506c:	a9015801 	stp	x1, x22, [x0, #16]
  405070:	f9000ac0 	str	x0, [x22, #16]
  405074:	f9000c20 	str	x0, [x1, #24]
  405078:	f10fff9f 	cmp	x28, #0x3ff
  40507c:	54000048 	b.hi	405084 <_int_malloc+0xaa0>  // b.pmore
  405080:	f9003720 	str	x0, [x25, #104]
  405084:	f10ffe9f 	cmp	x20, #0x3ff
  405088:	54000049 	b.ls	405090 <_int_malloc+0xaac>  // b.plast
  40508c:	a9027c1f 	stp	xzr, xzr, [x0, #32]
  405090:	f0000441 	adrp	x1, 490000 <.got.plt+0x18>
  405094:	9103c021 	add	x1, x1, #0xf0
  405098:	b2400282 	orr	x2, x20, #0x1
  40509c:	eb01033f 	cmp	x25, x1
  4050a0:	9a9f07e1 	cset	x1, ne	// ne = any
  4050a4:	aa010b81 	orr	x1, x28, x1, lsl #2
  4050a8:	b2400021 	orr	x1, x1, #0x1
  4050ac:	f9000741 	str	x1, [x26, #8]
  4050b0:	f9000402 	str	x2, [x0, #8]
  4050b4:	f8336b54 	str	x20, [x26, x19]
  4050b8:	b9463301 	ldr	w1, [x24, #1584]
  4050bc:	91004354 	add	x20, x26, #0x10
  4050c0:	34ffd141 	cbz	w1, 404ae8 <_int_malloc+0x504>
  4050c4:	17fffe60 	b	404a44 <_int_malloc+0x460>
  4050c8:	d349ff9a 	lsr	x26, x28, #9
  4050cc:	f100535f 	cmp	x26, #0x14
  4050d0:	540000c8 	b.hi	4050e8 <_int_malloc+0xb04>  // b.pmore
  4050d4:	f9400ec3 	ldr	x3, [x22, #24]
  4050d8:	11016f5a 	add	w26, w26, #0x5b
  4050dc:	eb16007f 	cmp	x3, x22
  4050e0:	54ffbc41 	b.ne	404868 <_int_malloc+0x284>  // b.any
  4050e4:	17fffed0 	b	404c24 <_int_malloc+0x640>
  4050e8:	d34cff9a 	lsr	x26, x28, #12
  4050ec:	f1002b5f 	cmp	x26, #0xa
  4050f0:	54000588 	b.hi	4051a0 <_int_malloc+0xbbc>  // b.pmore
  4050f4:	f9400ec3 	ldr	x3, [x22, #24]
  4050f8:	1101bb5a 	add	w26, w26, #0x6e
  4050fc:	eb16007f 	cmp	x3, x22
  405100:	54ffbb41 	b.ne	404868 <_int_malloc+0x284>  // b.any
  405104:	17fffec8 	b	404c24 <_int_malloc+0x640>
  405108:	f0000240 	adrp	x0, 450000 <__PRETTY_FUNCTION__.1+0x308>
  40510c:	912b8000 	add	x0, x0, #0xae0
  405110:	97fff2bc 	bl	401c00 <malloc_printerr>
  405114:	f0000240 	adrp	x0, 450000 <__PRETTY_FUNCTION__.1+0x308>
  405118:	9126a000 	add	x0, x0, #0x9a8
  40511c:	97fff2b9 	bl	401c00 <malloc_printerr>
  405120:	8b130353 	add	x19, x26, x19
  405124:	f0000440 	adrp	x0, 490000 <.got.plt+0x18>
  405128:	9103c000 	add	x0, x0, #0xf0
  40512c:	f9400661 	ldr	x1, [x19, #8]
  405130:	b2400021 	orr	x1, x1, #0x1
  405134:	f9000661 	str	x1, [x19, #8]
  405138:	eb00033f 	cmp	x25, x0
  40513c:	54fffbe0 	b.eq	4050b8 <_int_malloc+0xad4>  // b.none
  405140:	f9400740 	ldr	x0, [x26, #8]
  405144:	b27e0000 	orr	x0, x0, #0x4
  405148:	f9000740 	str	x0, [x26, #8]
  40514c:	17ffffdb 	b	4050b8 <_int_malloc+0xad4>
  405150:	91400273 	add	x19, x19, #0x0, lsl #12
  405154:	9100c273 	add	x19, x19, #0x30
  405158:	f9400660 	ldr	x0, [x19, #8]
  40515c:	8b170c02 	add	x2, x0, x23, lsl #3
  405160:	f9404054 	ldr	x20, [x2, #128]
  405164:	f2400e9f 	tst	x20, #0xf
  405168:	54000ee1 	b.ne	405344 <_int_malloc+0xd60>  // b.any
  40516c:	f9400281 	ldr	x1, [x20]
  405170:	d37ffaf7 	lsl	x23, x23, #1
  405174:	ca543021 	eor	x1, x1, x20, lsr #12
  405178:	f9004041 	str	x1, [x2, #128]
  40517c:	78776801 	ldrh	w1, [x0, x23]
  405180:	a9425bf5 	ldp	x21, x22, [sp, #32]
  405184:	51000421 	sub	w1, w1, #0x1
  405188:	78376801 	strh	w1, [x0, x23]
  40518c:	a94363f7 	ldp	x23, x24, [sp, #48]
  405190:	a9446bf9 	ldp	x25, x26, [sp, #64]
  405194:	a94573fb 	ldp	x27, x28, [sp, #80]
  405198:	f900069f 	str	xzr, [x20, #8]
  40519c:	17fffe57 	b	404af8 <_int_malloc+0x514>
  4051a0:	d34fff9a 	lsr	x26, x28, #15
  4051a4:	f9400ec3 	ldr	x3, [x22, #24]
  4051a8:	f100135f 	cmp	x26, #0x4
  4051ac:	54000348 	b.hi	405214 <_int_malloc+0xc30>  // b.pmore
  4051b0:	1101df5a 	add	w26, w26, #0x77
  4051b4:	eb16007f 	cmp	x3, x22
  4051b8:	54ffb581 	b.ne	404868 <_int_malloc+0x284>  // b.any
  4051bc:	17fffe9a 	b	404c24 <_int_malloc+0x640>
  4051c0:	90000263 	adrp	x3, 451000 <__PRETTY_FUNCTION__.1+0x1308>
  4051c4:	d0000241 	adrp	x1, 44f000 <_Unwind_Find_FDE+0x430>
  4051c8:	f0000240 	adrp	x0, 450000 <__PRETTY_FUNCTION__.1+0x308>
  4051cc:	9103c063 	add	x3, x3, #0xf0
  4051d0:	91362021 	add	x1, x1, #0xd88
  4051d4:	9129e000 	add	x0, x0, #0xa78
  4051d8:	52821fc2 	mov	w2, #0x10fe                	// #4350
  4051dc:	94001e15 	bl	40ca30 <__libc_assert_fail>
  4051e0:	d37df2e8 	lsl	x8, x23, #3
  4051e4:	91400273 	add	x19, x19, #0x0, lsl #12
  4051e8:	9100c273 	add	x19, x19, #0x30
  4051ec:	f9400660 	ldr	x0, [x19, #8]
  4051f0:	8b080008 	add	x8, x0, x8
  4051f4:	f9404114 	ldr	x20, [x8, #128]
  4051f8:	f2400e9f 	tst	x20, #0xf
  4051fc:	54000a41 	b.ne	405344 <_int_malloc+0xd60>  // b.any
  405200:	f9400281 	ldr	x1, [x20]
  405204:	d37ffaf7 	lsl	x23, x23, #1
  405208:	ca543021 	eor	x1, x1, x20, lsr #12
  40520c:	f9004101 	str	x1, [x8, #128]
  405210:	17ffffdb 	b	40517c <_int_malloc+0xb98>
  405214:	d352ff9a 	lsr	x26, x28, #18
  405218:	d2800040 	mov	x0, #0x2                   	// #2
  40521c:	f1000b5f 	cmp	x26, #0x2
  405220:	9a80935a 	csel	x26, x26, x0, ls	// ls = plast
  405224:	1101f35a 	add	w26, w26, #0x7c
  405228:	eb16007f 	cmp	x3, x22
  40522c:	54ffb1e1 	b.ne	404868 <_int_malloc+0x284>  // b.any
  405230:	17fffe7d 	b	404c24 <_int_malloc+0x640>
  405234:	f9401414 	ldr	x20, [x0, #40]
  405238:	14000002 	b	405240 <_int_malloc+0xc5c>
  40523c:	f9401694 	ldr	x20, [x20, #40]
  405240:	f9400682 	ldr	x2, [x20, #8]
  405244:	927df053 	and	x19, x2, #0xfffffffffffffff8
  405248:	eb13039f 	cmp	x28, x19
  40524c:	54ffff88 	b.hi	40523c <_int_malloc+0xc58>  // b.pmore
  405250:	f9400c20 	ldr	x0, [x1, #24]
  405254:	eb14001f 	cmp	x0, x20
  405258:	540000a0 	b.eq	40526c <_int_malloc+0xc88>  // b.none
  40525c:	f9400a80 	ldr	x0, [x20, #16]
  405260:	f9400401 	ldr	x1, [x0, #8]
  405264:	eb01005f 	cmp	x2, x1
  405268:	9a801294 	csel	x20, x20, x0, ne	// ne = any
  40526c:	cb1c0277 	sub	x23, x19, x28
  405270:	aa1403e0 	mov	x0, x20
  405274:	97fff43f 	bl	402370 <unlink_chunk.isra.0>
  405278:	f1007eff 	cmp	x23, #0x1f
  40527c:	54000da9 	b.ls	405430 <_int_malloc+0xe4c>  // b.plast
  405280:	f9400ac1 	ldr	x1, [x22, #16]
  405284:	8b1c0280 	add	x0, x20, x28
  405288:	f9400c22 	ldr	x2, [x1, #24]
  40528c:	eb16005f 	cmp	x2, x22
  405290:	54000ca1 	b.ne	405424 <_int_malloc+0xe40>  // b.any
  405294:	a9015801 	stp	x1, x22, [x0, #16]
  405298:	f9000ac0 	str	x0, [x22, #16]
  40529c:	f9000c20 	str	x0, [x1, #24]
  4052a0:	f10ffeff 	cmp	x23, #0x3ff
  4052a4:	54000049 	b.ls	4052ac <_int_malloc+0xcc8>  // b.plast
  4052a8:	a9027c1f 	stp	xzr, xzr, [x0, #32]
  4052ac:	f0000441 	adrp	x1, 490000 <.got.plt+0x18>
  4052b0:	9103c021 	add	x1, x1, #0xf0
  4052b4:	b24002e2 	orr	x2, x23, #0x1
  4052b8:	eb01033f 	cmp	x25, x1
  4052bc:	9a9f07e1 	cset	x1, ne	// ne = any
  4052c0:	aa010b81 	orr	x1, x28, x1, lsl #2
  4052c4:	b2400021 	orr	x1, x1, #0x1
  4052c8:	f9000681 	str	x1, [x20, #8]
  4052cc:	f9000402 	str	x2, [x0, #8]
  4052d0:	f8336a97 	str	x23, [x20, x19]
  4052d4:	91004294 	add	x20, x20, #0x10
  4052d8:	aa1503e1 	mov	x1, x21
  4052dc:	aa1403e0 	mov	x0, x20
  4052e0:	97fff29c 	bl	401d50 <alloc_perturb>
  4052e4:	a9425bf5 	ldp	x21, x22, [sp, #32]
  4052e8:	a94363f7 	ldp	x23, x24, [sp, #48]
  4052ec:	a9446bf9 	ldp	x25, x26, [sp, #64]
  4052f0:	a94573fb 	ldp	x27, x28, [sp, #80]
  4052f4:	17fffe01 	b	404af8 <_int_malloc+0x514>
  4052f8:	f0000240 	adrp	x0, 450000 <__PRETTY_FUNCTION__.1+0x308>
  4052fc:	912ae000 	add	x0, x0, #0xab8
  405300:	97fff240 	bl	401c00 <malloc_printerr>
  405304:	f0000442 	adrp	x2, 490000 <.got.plt+0x18>
  405308:	9103c042 	add	x2, x2, #0xf0
  40530c:	eb02033f 	cmp	x25, x2
  405310:	8b1c0023 	add	x3, x1, x28
  405314:	9a9f07e2 	cset	x2, ne	// ne = any
  405318:	cb1c0000 	sub	x0, x0, x28
  40531c:	f9003323 	str	x3, [x25, #96]
  405320:	91004034 	add	x20, x1, #0x10
  405324:	aa020b82 	orr	x2, x28, x2, lsl #2
  405328:	b2400000 	orr	x0, x0, #0x1
  40532c:	b2400042 	orr	x2, x2, #0x1
  405330:	f9000422 	str	x2, [x1, #8]
  405334:	aa1503e1 	mov	x1, x21
  405338:	f9000460 	str	x0, [x3, #8]
  40533c:	aa1403e0 	mov	x0, x20
  405340:	17ffffe8 	b	4052e0 <_int_malloc+0xcfc>
  405344:	f0000240 	adrp	x0, 450000 <__PRETTY_FUNCTION__.1+0x308>
  405348:	91288000 	add	x0, x0, #0xa20
  40534c:	97fff22d 	bl	401c00 <malloc_printerr>
  405350:	aa1903e1 	mov	x1, x25
  405354:	aa1c03e0 	mov	x0, x28
  405358:	97fffaba 	bl	403e40 <sysmalloc>
  40535c:	aa0003f4 	mov	x20, x0
  405360:	b4ffbc40 	cbz	x0, 404ae8 <_int_malloc+0x504>
  405364:	aa1503e1 	mov	x1, x21
  405368:	17ffffde 	b	4052e0 <_int_malloc+0xcfc>
  40536c:	8b1c0064 	add	x4, x3, x28
  405370:	a90112c4 	stp	x4, x4, [x22, #16]
  405374:	cb1c0002 	sub	x2, x0, x28
  405378:	f9003724 	str	x4, [x25, #104]
  40537c:	a9015896 	stp	x22, x22, [x4, #16]
  405380:	f10ffc5f 	cmp	x2, #0x3ff
  405384:	54000049 	b.ls	40538c <_int_malloc+0xda8>  // b.plast
  405388:	a9027c9f 	stp	xzr, xzr, [x4, #32]
  40538c:	f0000440 	adrp	x0, 490000 <.got.plt+0x18>
  405390:	9103c000 	add	x0, x0, #0xf0
  405394:	b2400047 	orr	x7, x2, #0x1
  405398:	eb00033f 	cmp	x25, x0
  40539c:	91004074 	add	x20, x3, #0x10
  4053a0:	9a9f07e6 	cset	x6, ne	// ne = any
  4053a4:	aa1503e1 	mov	x1, x21
  4053a8:	aa1403e0 	mov	x0, x20
  4053ac:	aa060b86 	orr	x6, x28, x6, lsl #2
  4053b0:	b24000c6 	orr	x6, x6, #0x1
  4053b4:	f9000466 	str	x6, [x3, #8]
  4053b8:	f9000487 	str	x7, [x4, #8]
  4053bc:	f90000a2 	str	x2, [x5]
  4053c0:	17ffffc8 	b	4052e0 <_int_malloc+0xcfc>
  4053c4:	90000263 	adrp	x3, 451000 <__PRETTY_FUNCTION__.1+0x1308>
  4053c8:	d0000241 	adrp	x1, 44f000 <_Unwind_Find_FDE+0x430>
  4053cc:	f0000240 	adrp	x0, 450000 <__PRETTY_FUNCTION__.1+0x308>
  4053d0:	9103c063 	add	x3, x3, #0xf0
  4053d4:	91362021 	add	x1, x1, #0xd88
  4053d8:	91264000 	add	x0, x0, #0x990
  4053dc:	52820ba2 	mov	w2, #0x105d                	// #4189
  4053e0:	94001d94 	bl	40ca30 <__libc_assert_fail>
  4053e4:	90000263 	adrp	x3, 451000 <__PRETTY_FUNCTION__.1+0x1308>
  4053e8:	d0000241 	adrp	x1, 44f000 <_Unwind_Find_FDE+0x430>
  4053ec:	f0000240 	adrp	x0, 450000 <__PRETTY_FUNCTION__.1+0x308>
  4053f0:	9103c063 	add	x3, x3, #0xf0
  4053f4:	91362021 	add	x1, x1, #0xd88
  4053f8:	912a2000 	add	x0, x0, #0xa88
  4053fc:	52822222 	mov	w2, #0x1111                	// #4369
  405400:	94001d8c 	bl	40ca30 <__libc_assert_fail>
  405404:	90000263 	adrp	x3, 451000 <__PRETTY_FUNCTION__.1+0x1308>
  405408:	d0000241 	adrp	x1, 44f000 <_Unwind_Find_FDE+0x430>
  40540c:	f0000240 	adrp	x0, 450000 <__PRETTY_FUNCTION__.1+0x308>
  405410:	9103c063 	add	x3, x3, #0xf0
  405414:	91362021 	add	x1, x1, #0xd88
  405418:	91264000 	add	x0, x0, #0x990
  40541c:	52820b22 	mov	w2, #0x1059                	// #4185
  405420:	94001d84 	bl	40ca30 <__libc_assert_fail>
  405424:	f0000240 	adrp	x0, 450000 <__PRETTY_FUNCTION__.1+0x308>
  405428:	91294000 	add	x0, x0, #0xa50
  40542c:	97fff1f5 	bl	401c00 <malloc_printerr>
  405430:	8b130293 	add	x19, x20, x19
  405434:	f0000440 	adrp	x0, 490000 <.got.plt+0x18>
  405438:	9103c000 	add	x0, x0, #0xf0
  40543c:	f9400661 	ldr	x1, [x19, #8]
  405440:	b2400021 	orr	x1, x1, #0x1
  405444:	f9000661 	str	x1, [x19, #8]
  405448:	eb00033f 	cmp	x25, x0
  40544c:	54fff440 	b.eq	4052d4 <_int_malloc+0xcf0>  // b.none
  405450:	f9400680 	ldr	x0, [x20, #8]
  405454:	b27e0000 	orr	x0, x0, #0x4
  405458:	f9000680 	str	x0, [x20, #8]
  40545c:	17ffff9e 	b	4052d4 <_int_malloc+0xcf0>
  405460:	90000263 	adrp	x3, 451000 <__PRETTY_FUNCTION__.1+0x1308>
  405464:	d0000241 	adrp	x1, 44f000 <_Unwind_Find_FDE+0x430>
  405468:	f0000240 	adrp	x0, 450000 <__PRETTY_FUNCTION__.1+0x308>
  40546c:	9103c063 	add	x3, x3, #0xf0
  405470:	91362021 	add	x1, x1, #0xd88
  405474:	9125c000 	add	x0, x0, #0x970
  405478:	52820982 	mov	w2, #0x104c                	// #4172
  40547c:	94001d6d 	bl	40ca30 <__libc_assert_fail>

0000000000405480 <tcache_init.part.0>:
  405480:	a9bd7bfd 	stp	x29, x30, [sp, #-48]!
  405484:	d2a00000 	movz	x0, #0x0, lsl #16
  405488:	f2800600 	movk	x0, #0x30
  40548c:	910003fd 	mov	x29, sp
  405490:	f90013f5 	str	x21, [sp, #32]
  405494:	d53bd055 	mrs	x21, tpidr_el0
  405498:	a90153f3 	stp	x19, x20, [sp, #16]
  40549c:	f8606ab3 	ldr	x19, [x21, x0]
  4054a0:	b4000353 	cbz	x19, 405508 <tcache_init.part.0+0x88>
  4054a4:	aa1303e2 	mov	x2, x19
  4054a8:	52800021 	mov	w1, #0x1                   	// #1
  4054ac:	52800000 	mov	w0, #0x0                   	// #0
  4054b0:	94010f18 	bl	449110 <__aarch64_cas4_acq>
  4054b4:	350005e0 	cbnz	w0, 405570 <tcache_init.part.0+0xf0>
  4054b8:	aa1303e0 	mov	x0, x19
  4054bc:	d2805001 	mov	x1, #0x280                 	// #640
  4054c0:	97fffc49 	bl	4045e4 <_int_malloc>
  4054c4:	aa0003f4 	mov	x20, x0
  4054c8:	b4000340 	cbz	x0, 405530 <tcache_init.part.0+0xb0>
  4054cc:	aa1303e1 	mov	x1, x19
  4054d0:	52800000 	mov	w0, #0x0                   	// #0
  4054d4:	94010fbb 	bl	4493c0 <__aarch64_swp4_rel>
  4054d8:	7100041f 	cmp	w0, #0x1
  4054dc:	5400044c 	b.gt	405564 <tcache_init.part.0+0xe4>
  4054e0:	914002b5 	add	x21, x21, #0x0, lsl #12
  4054e4:	9100c2b5 	add	x21, x21, #0x30
  4054e8:	aa1403e0 	mov	x0, x20
  4054ec:	d2805002 	mov	x2, #0x280                 	// #640
  4054f0:	52800001 	mov	w1, #0x0                   	// #0
  4054f4:	f90006b4 	str	x20, [x21, #8]
  4054f8:	a94153f3 	ldp	x19, x20, [sp, #16]
  4054fc:	f94013f5 	ldr	x21, [sp, #32]
  405500:	a8c37bfd 	ldp	x29, x30, [sp], #48
  405504:	17ffeb5b 	b	400270 <.plt+0x30>
  405508:	d2800001 	mov	x1, #0x0                   	// #0
  40550c:	d2805000 	mov	x0, #0x280                 	// #640
  405510:	97fff581 	bl	402b14 <arena_get2>
  405514:	aa0003f3 	mov	x19, x0
  405518:	d2805001 	mov	x1, #0x280                 	// #640
  40551c:	97fffc32 	bl	4045e4 <_int_malloc>
  405520:	f100001f 	cmp	x0, #0x0
  405524:	aa0003f4 	mov	x20, x0
  405528:	fa400a64 	ccmp	x19, #0x0, #0x4, eq	// eq = none
  40552c:	54000100 	b.eq	40554c <tcache_init.part.0+0xcc>  // b.none
  405530:	aa1303e0 	mov	x0, x19
  405534:	d2805001 	mov	x1, #0x280                 	// #640
  405538:	97fff6ca 	bl	403060 <arena_get_retry>
  40553c:	aa0003f3 	mov	x19, x0
  405540:	d2805001 	mov	x1, #0x280                 	// #640
  405544:	97fffc28 	bl	4045e4 <_int_malloc>
  405548:	aa0003f4 	mov	x20, x0
  40554c:	b5000193 	cbnz	x19, 40557c <tcache_init.part.0+0xfc>
  405550:	b5fffc94 	cbnz	x20, 4054e0 <tcache_init.part.0+0x60>
  405554:	a94153f3 	ldp	x19, x20, [sp, #16]
  405558:	f94013f5 	ldr	x21, [sp, #32]
  40555c:	a8c37bfd 	ldp	x29, x30, [sp], #48
  405560:	d65f03c0 	ret
  405564:	aa1303e0 	mov	x0, x19
  405568:	97fff0d2 	bl	4018b0 <__lll_lock_wake_private>
  40556c:	17ffffdd 	b	4054e0 <tcache_init.part.0+0x60>
  405570:	aa1303e0 	mov	x0, x19
  405574:	97fff093 	bl	4017c0 <__lll_lock_wait_private>
  405578:	17ffffd0 	b	4054b8 <tcache_init.part.0+0x38>
  40557c:	aa1303e1 	mov	x1, x19
  405580:	52800000 	mov	w0, #0x0                   	// #0
  405584:	94010f8f 	bl	4493c0 <__aarch64_swp4_rel>
  405588:	7100041f 	cmp	w0, #0x1
  40558c:	54fffe2d 	b.le	405550 <tcache_init.part.0+0xd0>
  405590:	aa1303e0 	mov	x0, x19
  405594:	97fff0c7 	bl	4018b0 <__lll_lock_wake_private>
  405598:	17ffffee 	b	405550 <tcache_init.part.0+0xd0>
  40559c:	d503201f 	nop

00000000004055a0 <_int_realloc>:
  4055a0:	a9bb7bfd 	stp	x29, x30, [sp, #-80]!
  4055a4:	910003fd 	mov	x29, sp
  4055a8:	a9025bf5 	stp	x21, x22, [sp, #32]
  4055ac:	f9400435 	ldr	x21, [x1, #8]
  4055b0:	a90153f3 	stp	x19, x20, [sp, #16]
  4055b4:	a90363f7 	stp	x23, x24, [sp, #48]
  4055b8:	f90023f9 	str	x25, [sp, #64]
  4055bc:	f10042bf 	cmp	x21, #0x10
  4055c0:	540009a9 	b.ls	4056f4 <_int_realloc+0x154>  // b.plast
  4055c4:	aa0203f4 	mov	x20, x2
  4055c8:	aa0003f8 	mov	x24, x0
  4055cc:	f9444402 	ldr	x2, [x0, #2184]
  4055d0:	eb14005f 	cmp	x2, x20
  4055d4:	54000909 	b.ls	4056f4 <_int_realloc+0x154>  // b.plast
  4055d8:	aa0103f3 	mov	x19, x1
  4055dc:	927df2a1 	and	x1, x21, #0xfffffffffffffff8
  4055e0:	eb14003f 	cmp	x1, x20
  4055e4:	54000881 	b.ne	4056f4 <_int_realloc+0x154>  // b.any
  4055e8:	37080f15 	tbnz	w21, #1, 4057c8 <_int_realloc+0x228>
  4055ec:	8b010279 	add	x25, x19, x1
  4055f0:	f9400724 	ldr	x4, [x25, #8]
  4055f4:	927df085 	and	x5, x4, #0xfffffffffffffff8
  4055f8:	eb05005f 	cmp	x2, x5
  4055fc:	fa508880 	ccmp	x4, #0x10, #0x0, hi	// hi = pmore
  405600:	54000b89 	b.ls	405770 <_int_realloc+0x1d0>  // b.plast
  405604:	aa0303f7 	mov	x23, x3
  405608:	eb03003f 	cmp	x1, x3
  40560c:	54000303 	b.cc	40566c <_int_realloc+0xcc>  // b.lo, b.ul, b.last
  405610:	f0000440 	adrp	x0, 490000 <.got.plt+0x18>
  405614:	9103c000 	add	x0, x0, #0xf0
  405618:	eb00031f 	cmp	x24, x0
  40561c:	92400ab5 	and	x21, x21, #0x7
  405620:	9a9f07e2 	cset	x2, ne	// ne = any
  405624:	cb170280 	sub	x0, x20, x23
  405628:	d37ef442 	lsl	x2, x2, #2
  40562c:	aa0202b5 	orr	x21, x21, x2
  405630:	f1007c1f 	cmp	x0, #0x1f
  405634:	54000668 	b.hi	405700 <_int_realloc+0x160>  // b.pmore
  405638:	aa150294 	orr	x20, x20, x21
  40563c:	f9000674 	str	x20, [x19, #8]
  405640:	f9400720 	ldr	x0, [x25, #8]
  405644:	b2400000 	orr	x0, x0, #0x1
  405648:	f9000720 	str	x0, [x25, #8]
  40564c:	91004276 	add	x22, x19, #0x10
  405650:	a94153f3 	ldp	x19, x20, [sp, #16]
  405654:	aa1603e0 	mov	x0, x22
  405658:	a9425bf5 	ldp	x21, x22, [sp, #32]
  40565c:	a94363f7 	ldp	x23, x24, [sp, #48]
  405660:	f94023f9 	ldr	x25, [sp, #64]
  405664:	a8c57bfd 	ldp	x29, x30, [sp], #80
  405668:	d65f03c0 	ret
  40566c:	f9403000 	ldr	x0, [x0, #96]
  405670:	eb19001f 	cmp	x0, x25
  405674:	54000840 	b.eq	40577c <_int_realloc+0x1dc>  // b.none
  405678:	8b050320 	add	x0, x25, x5
  40567c:	f9400400 	ldr	x0, [x0, #8]
  405680:	360005a0 	tbz	w0, #0, 405734 <_int_realloc+0x194>
  405684:	d1003ee1 	sub	x1, x23, #0xf
  405688:	aa1803e0 	mov	x0, x24
  40568c:	97fffbd6 	bl	4045e4 <_int_malloc>
  405690:	aa0003f6 	mov	x22, x0
  405694:	b4fffde0 	cbz	x0, 405650 <_int_realloc+0xb0>
  405698:	d1004001 	sub	x1, x0, #0x10
  40569c:	f85f8002 	ldur	x2, [x0, #-8]
  4056a0:	eb01033f 	cmp	x25, x1
  4056a4:	54000580 	b.eq	405754 <_int_realloc+0x1b4>  // b.none
  4056a8:	f9400663 	ldr	x3, [x19, #8]
  4056ac:	91004261 	add	x1, x19, #0x10
  4056b0:	d27f0062 	eor	x2, x3, #0x2
  4056b4:	927df063 	and	x3, x3, #0xfffffffffffffff8
  4056b8:	d1004063 	sub	x3, x3, #0x10
  4056bc:	d3410442 	ubfx	x2, x2, #1, #1
  4056c0:	8b020c62 	add	x2, x3, x2, lsl #3
  4056c4:	97ffeae3 	bl	400250 <.plt+0x10>
  4056c8:	aa1303e1 	mov	x1, x19
  4056cc:	aa1803e0 	mov	x0, x24
  4056d0:	52800022 	mov	w2, #0x1                   	// #1
  4056d4:	97fff8e3 	bl	403a60 <_int_free>
  4056d8:	a94153f3 	ldp	x19, x20, [sp, #16]
  4056dc:	aa1603e0 	mov	x0, x22
  4056e0:	a9425bf5 	ldp	x21, x22, [sp, #32]
  4056e4:	a94363f7 	ldp	x23, x24, [sp, #48]
  4056e8:	f94023f9 	ldr	x25, [sp, #64]
  4056ec:	a8c57bfd 	ldp	x29, x30, [sp], #80
  4056f0:	d65f03c0 	ret
  4056f4:	f0000240 	adrp	x0, 450000 <__PRETTY_FUNCTION__.1+0x308>
  4056f8:	912c0000 	add	x0, x0, #0xb00
  4056fc:	97fff141 	bl	401c00 <malloc_printerr>
  405700:	8b170261 	add	x1, x19, x23
  405704:	aa1502e3 	orr	x3, x23, x21
  405708:	aa020000 	orr	x0, x0, x2
  40570c:	f9000663 	str	x3, [x19, #8]
  405710:	b2400000 	orr	x0, x0, #0x1
  405714:	52800022 	mov	w2, #0x1                   	// #1
  405718:	f9000420 	str	x0, [x1, #8]
  40571c:	aa1803e0 	mov	x0, x24
  405720:	f9400723 	ldr	x3, [x25, #8]
  405724:	b2400063 	orr	x3, x3, #0x1
  405728:	f9000723 	str	x3, [x25, #8]
  40572c:	97fff8cd 	bl	403a60 <_int_free>
  405730:	17ffffc7 	b	40564c <_int_realloc+0xac>
  405734:	8b050296 	add	x22, x20, x5
  405738:	eb16007f 	cmp	x3, x22
  40573c:	54fffa48 	b.hi	405684 <_int_realloc+0xe4>  // b.pmore
  405740:	aa1903e0 	mov	x0, x25
  405744:	aa1603f4 	mov	x20, x22
  405748:	8b160279 	add	x25, x19, x22
  40574c:	97fff309 	bl	402370 <unlink_chunk.isra.0>
  405750:	17ffffb0 	b	405610 <_int_realloc+0x70>
  405754:	927df042 	and	x2, x2, #0xfffffffffffffff8
  405758:	8b020294 	add	x20, x20, x2
  40575c:	eb1402ff 	cmp	x23, x20
  405760:	54000448 	b.hi	4057e8 <_int_realloc+0x248>  // b.pmore
  405764:	f9400675 	ldr	x21, [x19, #8]
  405768:	8b140279 	add	x25, x19, x20
  40576c:	17ffffa9 	b	405610 <_int_realloc+0x70>
  405770:	f0000240 	adrp	x0, 450000 <__PRETTY_FUNCTION__.1+0x308>
  405774:	912d0000 	add	x0, x0, #0xb40
  405778:	97fff122 	bl	401c00 <malloc_printerr>
  40577c:	8b050021 	add	x1, x1, x5
  405780:	91008060 	add	x0, x3, #0x20
  405784:	eb00003f 	cmp	x1, x0
  405788:	54fff7e3 	b.cc	405684 <_int_realloc+0xe4>  // b.lo, b.ul, b.last
  40578c:	f0000440 	adrp	x0, 490000 <.got.plt+0x18>
  405790:	9103c000 	add	x0, x0, #0xf0
  405794:	eb00031f 	cmp	x24, x0
  405798:	92400ab5 	and	x21, x21, #0x7
  40579c:	9a9f07e0 	cset	x0, ne	// ne = any
  4057a0:	8b030262 	add	x2, x19, x3
  4057a4:	cb030021 	sub	x1, x1, x3
  4057a8:	91004276 	add	x22, x19, #0x10
  4057ac:	aa000aa0 	orr	x0, x21, x0, lsl #2
  4057b0:	b2400021 	orr	x1, x1, #0x1
  4057b4:	aa030000 	orr	x0, x0, x3
  4057b8:	f9000660 	str	x0, [x19, #8]
  4057bc:	f9003302 	str	x2, [x24, #96]
  4057c0:	f9000441 	str	x1, [x2, #8]
  4057c4:	17ffffa3 	b	405650 <_int_realloc+0xb0>
  4057c8:	90000263 	adrp	x3, 451000 <__PRETTY_FUNCTION__.1+0x1308>
  4057cc:	d0000241 	adrp	x1, 44f000 <_Unwind_Find_FDE+0x430>
  4057d0:	f0000240 	adrp	x0, 450000 <__PRETTY_FUNCTION__.1+0x308>
  4057d4:	91018063 	add	x3, x3, #0x60
  4057d8:	91362021 	add	x1, x1, #0xd88
  4057dc:	912c8000 	add	x0, x0, #0xb20
  4057e0:	528267c2 	mov	w2, #0x133e                	// #4926
  4057e4:	94001c93 	bl	40ca30 <__libc_assert_fail>
  4057e8:	90000263 	adrp	x3, 451000 <__PRETTY_FUNCTION__.1+0x1308>
  4057ec:	d0000241 	adrp	x1, 44f000 <_Unwind_Find_FDE+0x430>
  4057f0:	f0000240 	adrp	x0, 450000 <__PRETTY_FUNCTION__.1+0x308>
  4057f4:	91018063 	add	x3, x3, #0x60
  4057f8:	91362021 	add	x1, x1, #0xd88
  4057fc:	912d8000 	add	x0, x0, #0xb60
  405800:	528270e2 	mov	w2, #0x1387                	// #4999
  405804:	94001c8b 	bl	40ca30 <__libc_assert_fail>
  405808:	d503201f 	nop
  40580c:	d503201f 	nop

0000000000405810 <_int_memalign>:
  405810:	a9bc7bfd 	stp	x29, x30, [sp, #-64]!
  405814:	910003fd 	mov	x29, sp
  405818:	a90153f3 	stp	x19, x20, [sp, #16]
  40581c:	b7f80d62 	tbnz	x2, #63, 4059c8 <_int_memalign+0x1b8>
  405820:	91005c42 	add	x2, x2, #0x17
  405824:	a90363f7 	stp	x23, x24, [sp, #48]
  405828:	f1007c5f 	cmp	x2, #0x1f
  40582c:	927cec42 	and	x2, x2, #0xfffffffffffffff0
  405830:	aa0103f7 	mov	x23, x1
  405834:	d2800401 	mov	x1, #0x20                  	// #32
  405838:	9a818053 	csel	x19, x2, x1, hi	// hi = pmore
  40583c:	8b0102e1 	add	x1, x23, x1
  405840:	a9025bf5 	stp	x21, x22, [sp, #32]
  405844:	8b130021 	add	x1, x1, x19
  405848:	aa0003f6 	mov	x22, x0
  40584c:	97fffb66 	bl	4045e4 <_int_malloc>
  405850:	aa0003f4 	mov	x20, x0
  405854:	b4000c80 	cbz	x0, 4059e4 <_int_memalign+0x1d4>
  405858:	9ad70802 	udiv	x2, x0, x23
  40585c:	d1004001 	sub	x1, x0, #0x10
  405860:	aa0103f5 	mov	x21, x1
  405864:	9b178042 	msub	x2, x2, x23, x0
  405868:	b4000502 	cbz	x2, 405908 <_int_memalign+0xf8>
  40586c:	d10006f5 	sub	x21, x23, #0x1
  405870:	cb1703e0 	neg	x0, x23
  405874:	8b150295 	add	x21, x20, x21
  405878:	8a0002b5 	and	x21, x21, x0
  40587c:	d10042b5 	sub	x21, x21, #0x10
  405880:	cb0102a2 	sub	x2, x21, x1
  405884:	f1007c5f 	cmp	x2, #0x1f
  405888:	54000068 	b.hi	405894 <_int_memalign+0x84>  // b.pmore
  40588c:	8b1702b5 	add	x21, x21, x23
  405890:	cb0102a2 	sub	x2, x21, x1
  405894:	f9400420 	ldr	x0, [x1, #8]
  405898:	927df018 	and	x24, x0, #0xfffffffffffffff8
  40589c:	cb020318 	sub	x24, x24, x2
  4058a0:	370807e0 	tbnz	w0, #1, 40599c <_int_memalign+0x18c>
  4058a4:	f0000440 	adrp	x0, 490000 <.got.plt+0x18>
  4058a8:	9103c000 	add	x0, x0, #0xf0
  4058ac:	eb0002df 	cmp	x22, x0
  4058b0:	8b1802a5 	add	x5, x21, x24
  4058b4:	9a9f07e4 	cset	x4, ne	// ne = any
  4058b8:	aa1603e0 	mov	x0, x22
  4058bc:	d37ef484 	lsl	x4, x4, #2
  4058c0:	aa040303 	orr	x3, x24, x4
  4058c4:	b2400063 	orr	x3, x3, #0x1
  4058c8:	f90006a3 	str	x3, [x21, #8]
  4058cc:	f94004a3 	ldr	x3, [x5, #8]
  4058d0:	b2400063 	orr	x3, x3, #0x1
  4058d4:	f90004a3 	str	x3, [x5, #8]
  4058d8:	f9400423 	ldr	x3, [x1, #8]
  4058dc:	92400863 	and	x3, x3, #0x7
  4058e0:	aa040063 	orr	x3, x3, x4
  4058e4:	aa020063 	orr	x3, x3, x2
  4058e8:	f9000423 	str	x3, [x1, #8]
  4058ec:	97fff80d 	bl	403920 <_int_free_merge_chunk>
  4058f0:	eb13031f 	cmp	x24, x19
  4058f4:	54000803 	b.cc	4059f4 <_int_memalign+0x1e4>  // b.lo, b.ul, b.last
  4058f8:	910042b4 	add	x20, x21, #0x10
  4058fc:	9ad70a80 	udiv	x0, x20, x23
  405900:	9b17d000 	msub	x0, x0, x23, x20
  405904:	b5000780 	cbnz	x0, 4059f4 <_int_memalign+0x1e4>
  405908:	f94006a0 	ldr	x0, [x21, #8]
  40590c:	360800e0 	tbz	w0, #1, 405928 <_int_memalign+0x118>
  405910:	a9425bf5 	ldp	x21, x22, [sp, #32]
  405914:	a94363f7 	ldp	x23, x24, [sp, #48]
  405918:	aa1403e0 	mov	x0, x20
  40591c:	a94153f3 	ldp	x19, x20, [sp, #16]
  405920:	a8c47bfd 	ldp	x29, x30, [sp], #64
  405924:	d65f03c0 	ret
  405928:	927df002 	and	x2, x0, #0xfffffffffffffff8
  40592c:	8b0202a3 	add	x3, x21, x2
  405930:	f9400464 	ldr	x4, [x3, #8]
  405934:	eb13005f 	cmp	x2, x19
  405938:	54fffec9 	b.ls	405910 <_int_memalign+0x100>  // b.plast
  40593c:	cb130042 	sub	x2, x2, x19
  405940:	927df084 	and	x4, x4, #0xfffffffffffffff8
  405944:	f1007c5f 	cmp	x2, #0x1f
  405948:	540000e8 	b.hi	405964 <_int_memalign+0x154>  // b.pmore
  40594c:	f94032c1 	ldr	x1, [x22, #96]
  405950:	eb03003f 	cmp	x1, x3
  405954:	54000080 	b.eq	405964 <_int_memalign+0x154>  // b.none
  405958:	8b040061 	add	x1, x3, x4
  40595c:	f9400421 	ldr	x1, [x1, #8]
  405960:	3707fd81 	tbnz	w1, #0, 405910 <_int_memalign+0x100>
  405964:	92400800 	and	x0, x0, #0x7
  405968:	8b1302a1 	add	x1, x21, x19
  40596c:	aa130000 	orr	x0, x0, x19
  405970:	f90006a0 	str	x0, [x21, #8]
  405974:	aa1603e0 	mov	x0, x22
  405978:	97fff316 	bl	4025d0 <_int_free_create_chunk>
  40597c:	d29fffe1 	mov	x1, #0xffff                	// #65535
  405980:	eb01001f 	cmp	x0, x1
  405984:	54fffc69 	b.ls	405910 <_int_memalign+0x100>  // b.plast
  405988:	aa1603e0 	mov	x0, x22
  40598c:	97fff6d9 	bl	4034f0 <_int_free_maybe_consolidate.part.0>
  405990:	a9425bf5 	ldp	x21, x22, [sp, #32]
  405994:	a94363f7 	ldp	x23, x24, [sp, #48]
  405998:	17ffffe0 	b	405918 <_int_memalign+0x108>
  40599c:	f85f0280 	ldur	x0, [x20, #-16]
  4059a0:	b27f0318 	orr	x24, x24, #0x2
  4059a4:	910042b4 	add	x20, x21, #0x10
  4059a8:	8b020000 	add	x0, x0, x2
  4059ac:	a90062a0 	stp	x0, x24, [x21]
  4059b0:	aa1403e0 	mov	x0, x20
  4059b4:	a94153f3 	ldp	x19, x20, [sp, #16]
  4059b8:	a9425bf5 	ldp	x21, x22, [sp, #32]
  4059bc:	a94363f7 	ldp	x23, x24, [sp, #48]
  4059c0:	a8c47bfd 	ldp	x29, x30, [sp], #64
  4059c4:	d65f03c0 	ret
  4059c8:	d2a00000 	movz	x0, #0x0, lsl #16
  4059cc:	f2800500 	movk	x0, #0x28
  4059d0:	d53bd041 	mrs	x1, tpidr_el0
  4059d4:	52800182 	mov	w2, #0xc                   	// #12
  4059d8:	d2800014 	mov	x20, #0x0                   	// #0
