0000000000000814 <_Z8producerPv>:
 814:	a9bc7bfd 	stp	x29, x30, [sp, #-64]!
 818:	910003fd 	mov	x29, sp
 81c:	f9000fe0 	str	x0, [sp, #24]
 820:	f9400fe0 	ldr	x0, [sp, #24]
 824:	f9400000 	ldr	x0, [x0]
 828:	f9001fe0 	str	x0, [sp, #56]
 82c:	9017d880 	adrp	x0, 2fb10000 <My_values+0x17d77bb0>
 830:	91214000 	add	x0, x0, #0x850
 834:	f900001f 	str	xzr, [x0]
 838:	1400004a 	b	960 <_Z8producerPv+0x14c>
 83c:	9017d880 	adrp	x0, 2fb10000 <My_values+0x17d77bb0>
 840:	91214000 	add	x0, x0, #0x850
 844:	f9400000 	ldr	x0, [x0]
 848:	9017d881 	adrp	x1, 2fb10000 <My_values+0x17d77bb0>
 84c:	91214021 	add	x1, x1, #0x850
 850:	f9400021 	ldr	x1, [x1]
 854:	91000402 	add	x2, x0, #0x1
 858:	90000100 	adrp	x0, 20000 <__libc_start_main@GLIBC_2.34>
 85c:	91014000 	add	x0, x0, #0x50
 860:	f8217802 	str	x2, [x0, x1, lsl #3]
 864:	9017d880 	adrp	x0, 2fb10000 <My_values+0x17d77bb0>
 868:	91214000 	add	x0, x0, #0x850
 86c:	f9400000 	ldr	x0, [x0]
 870:	d37df001 	lsl	x1, x0, #3
 874:	900becc0 	adrp	x0, 17d98000 <prec_elements+0x17d77fb0>
 878:	91114000 	add	x0, x0, #0x450
 87c:	8b000021 	add	x1, x1, x0
 880:	9017d880 	adrp	x0, 2fb10000 <My_values+0x17d77bb0>
 884:	91214000 	add	x0, x0, #0x850
 888:	f9400000 	ldr	x0, [x0]
 88c:	91000400 	add	x0, x0, #0x1
 890:	f9001be1 	str	x1, [sp, #48]
 894:	f90017e0 	str	x0, [sp, #40]
 898:	52800060 	mov	w0, #0x3                   	// #3
 89c:	b90027e0 	str	w0, [sp, #36]
 8a0:	529fffe1 	mov	w1, #0xffff                	// #65535
 8a4:	b94027e0 	ldr	w0, [sp, #36]
 8a8:	940000a8 	bl	b48 <_ZStanSt12memory_orderSt23__memory_order_modifier>
 8ac:	b90023e0 	str	w0, [sp, #32]
 8b0:	940000a4 	bl	b40 <_ZSt23__is_constant_evaluatedv>
 8b4:	12001c00 	and	w0, w0, #0xff
 8b8:	7100001f 	cmp	w0, #0x0
 8bc:	540000c0 	b.eq	8d4 <_Z8producerPv+0xc0>  // b.none
 8c0:	b94023e0 	ldr	w0, [sp, #32]
 8c4:	7100081f 	cmp	w0, #0x2
 8c8:	54000061 	b.ne	8d4 <_Z8producerPv+0xc0>  // b.any
 8cc:	52800020 	mov	w0, #0x1                   	// #1
 8d0:	14000002 	b	8d8 <_Z8producerPv+0xc4>
 8d4:	52800000 	mov	w0, #0x0                   	// #0
 8d8:	7100001f 	cmp	w0, #0x0
 8dc:	94000099 	bl	b40 <_ZSt23__is_constant_evaluatedv>
 8e0:	12001c00 	and	w0, w0, #0xff
 8e4:	7100001f 	cmp	w0, #0x0
 8e8:	540000c0 	b.eq	900 <_Z8producerPv+0xec>  // b.none
 8ec:	b94023e0 	ldr	w0, [sp, #32]
 8f0:	7100101f 	cmp	w0, #0x4
 8f4:	54000061 	b.ne	900 <_Z8producerPv+0xec>  // b.any
 8f8:	52800020 	mov	w0, #0x1                   	// #1
 8fc:	14000002 	b	904 <_Z8producerPv+0xf0>
 900:	52800000 	mov	w0, #0x0                   	// #0
 904:	7100001f 	cmp	w0, #0x0
 908:	9400008e 	bl	b40 <_ZSt23__is_constant_evaluatedv>
 90c:	12001c00 	and	w0, w0, #0xff
 910:	7100001f 	cmp	w0, #0x0
 914:	540000c0 	b.eq	92c <_Z8producerPv+0x118>  // b.none
 918:	b94023e0 	ldr	w0, [sp, #32]
 91c:	7100041f 	cmp	w0, #0x1
 920:	54000061 	b.ne	92c <_Z8producerPv+0x118>  // b.any
 924:	52800020 	mov	w0, #0x1                   	// #1
 928:	14000002 	b	930 <_Z8producerPv+0x11c>
 92c:	52800000 	mov	w0, #0x0                   	// #0
 930:	7100001f 	cmp	w0, #0x0
 934:	f9401be0 	ldr	x0, [sp, #48]
 938:	f94017e1 	ldr	x1, [sp, #40]
 93c:	c89ffc01 	stlr	x1, [x0]
 940:	d503201f 	nop
 944:	9017d880 	adrp	x0, 2fb10000 <My_values+0x17d77bb0>
 948:	91214000 	add	x0, x0, #0x850
 94c:	f9400000 	ldr	x0, [x0]
 950:	91000401 	add	x1, x0, #0x1
 954:	9017d880 	adrp	x0, 2fb10000 <My_values+0x17d77bb0>
 958:	91214000 	add	x0, x0, #0x850
 95c:	f9000001 	str	x1, [x0]
 960:	9017d880 	adrp	x0, 2fb10000 <My_values+0x17d77bb0>
 964:	91214000 	add	x0, x0, #0x850
 968:	f9400000 	ldr	x0, [x0]
 96c:	f9401fe1 	ldr	x1, [sp, #56]
 970:	eb00003f 	cmp	x1, x0
 974:	54fff64c 	b.gt	83c <_Z8producerPv+0x28>
 978:	d2800000 	mov	x0, #0x0                   	// #0
 97c:	a8c47bfd 	ldp	x29, x30, [sp], #64
 980:	d65f03c0 	ret

0000000000000984 <_Z8consumerPv>:
 984:	a9ba7bfd 	stp	x29, x30, [sp, #-96]!
 988:	910003fd 	mov	x29, sp
 98c:	f9000fe0 	str	x0, [sp, #24]
 990:	f9400fe0 	ldr	x0, [sp, #24]
 994:	f9400000 	ldr	x0, [x0]
 998:	f90027e0 	str	x0, [sp, #72]
 99c:	f9002fff 	str	xzr, [sp, #88]
 9a0:	92800000 	mov	x0, #0xffffffffffffffff    	// #-1
 9a4:	f90023e0 	str	x0, [sp, #64]
 9a8:	92800000 	mov	x0, #0xffffffffffffffff    	// #-1
 9ac:	f9001fe0 	str	x0, [sp, #56]
 9b0:	f9002bff 	str	xzr, [sp, #80]
 9b4:	9017d880 	adrp	x0, 2fb10000 <My_values+0x17d77bb0>
 9b8:	91214000 	add	x0, x0, #0x850
 9bc:	f9400000 	ldr	x0, [x0]
 9c0:	f9002be0 	str	x0, [sp, #80]
 9c4:	14000036 	b	a9c <_Z8consumerPv+0x118>
 9c8:	f9402be0 	ldr	x0, [sp, #80]
 9cc:	d37df001 	lsl	x1, x0, #3
 9d0:	900becc0 	adrp	x0, 17d98000 <prec_elements+0x17d77fb0>
 9d4:	91114000 	add	x0, x0, #0x450
 9d8:	8b000020 	add	x0, x1, x0
 9dc:	f9001be0 	str	x0, [sp, #48]
 9e0:	52800040 	mov	w0, #0x2                   	// #2
 9e4:	b9002fe0 	str	w0, [sp, #44]
 9e8:	529fffe1 	mov	w1, #0xffff                	// #65535
 9ec:	b9402fe0 	ldr	w0, [sp, #44]
 9f0:	94000056 	bl	b48 <_ZStanSt12memory_orderSt23__memory_order_modifier>
 9f4:	b9002be0 	str	w0, [sp, #40]
 9f8:	94000052 	bl	b40 <_ZSt23__is_constant_evaluatedv>
 9fc:	12001c00 	and	w0, w0, #0xff
 a00:	7100001f 	cmp	w0, #0x0
 a04:	540000c0 	b.eq	a1c <_Z8consumerPv+0x98>  // b.none
 a08:	b9402be0 	ldr	w0, [sp, #40]
 a0c:	71000c1f 	cmp	w0, #0x3
 a10:	54000061 	b.ne	a1c <_Z8consumerPv+0x98>  // b.any
 a14:	52800020 	mov	w0, #0x1                   	// #1
 a18:	14000002 	b	a20 <_Z8consumerPv+0x9c>
 a1c:	52800000 	mov	w0, #0x0                   	// #0
 a20:	7100001f 	cmp	w0, #0x0
 a24:	94000047 	bl	b40 <_ZSt23__is_constant_evaluatedv>
 a28:	12001c00 	and	w0, w0, #0xff
 a2c:	7100001f 	cmp	w0, #0x0
 a30:	540000c0 	b.eq	a48 <_Z8consumerPv+0xc4>  // b.none
 a34:	b9402be0 	ldr	w0, [sp, #40]
 a38:	7100101f 	cmp	w0, #0x4
 a3c:	54000061 	b.ne	a48 <_Z8consumerPv+0xc4>  // b.any
 a40:	52800020 	mov	w0, #0x1                   	// #1
 a44:	14000002 	b	a4c <_Z8consumerPv+0xc8>
 a48:	52800000 	mov	w0, #0x0                   	// #0
 a4c:	7100001f 	cmp	w0, #0x0
 a50:	f9401be0 	ldr	x0, [sp, #48]
 a54:	c8dffc00 	ldar	x0, [x0]
 a58:	f9001fe0 	str	x0, [sp, #56]
 a5c:	90000100 	adrp	x0, 20000 <__libc_start_main@GLIBC_2.34>
 a60:	91014000 	add	x0, x0, #0x50
 a64:	f9402be1 	ldr	x1, [sp, #80]
 a68:	f8617800 	ldr	x0, [x0, x1, lsl #3]
 a6c:	f90023e0 	str	x0, [sp, #64]
 a70:	f9401fe1 	ldr	x1, [sp, #56]
 a74:	f94023e0 	ldr	x0, [sp, #64]
 a78:	eb00003f 	cmp	x1, x0
 a7c:	5400008d 	b.le	a8c <_Z8consumerPv+0x108>
 a80:	f9402fe0 	ldr	x0, [sp, #88]
 a84:	91000400 	add	x0, x0, #0x1
 a88:	f9002fe0 	str	x0, [sp, #88]
 a8c:	9017d880 	adrp	x0, 2fb10000 <My_values+0x17d77bb0>
 a90:	91214000 	add	x0, x0, #0x850
 a94:	f9400000 	ldr	x0, [x0]
 a98:	f9002be0 	str	x0, [sp, #80]
 a9c:	f9402be1 	ldr	x1, [sp, #80]
 aa0:	f94027e0 	ldr	x0, [sp, #72]
 aa4:	eb00003f 	cmp	x1, x0
 aa8:	54fff90b 	b.lt	9c8 <_Z8consumerPv+0x44>  // b.tstop
 aac:	f9402fe1 	ldr	x1, [sp, #88]
 ab0:	90000000 	adrp	x0, 0 <__abi_tag-0x278>
 ab4:	912e2000 	add	x0, x0, #0xb88
 ab8:	97ffff02 	bl	6c0 <printf@plt>
 abc:	d2800000 	mov	x0, #0x0                   	// #0
 ac0:	a8c67bfd 	ldp	x29, x30, [sp], #96
 ac4:	d65f03c0 	ret

0000000000000ac8 <main>:
 ac8:	a9bd7bfd 	stp	x29, x30, [sp, #-48]!
 acc:	910003fd 	mov	x29, sp
 ad0:	d29e1000 	mov	x0, #0xf080                	// #61568
 ad4:	f2a05f40 	movk	x0, #0x2fa, lsl #16
 ad8:	f9000fe0 	str	x0, [sp, #24]
 adc:	910063e0 	add	x0, sp, #0x18
 ae0:	9100a3e4 	add	x4, sp, #0x28
 ae4:	aa0003e3 	mov	x3, x0
 ae8:	90000000 	adrp	x0, 0 <__abi_tag-0x278>
 aec:	91205002 	add	x2, x0, #0x814
 af0:	d2800001 	mov	x1, #0x0                   	// #0
 af4:	aa0403e0 	mov	x0, x4
 af8:	97fffeee 	bl	6b0 <pthread_create@plt>
 afc:	910063e0 	add	x0, sp, #0x18
 b00:	910083e4 	add	x4, sp, #0x20
 b04:	aa0003e3 	mov	x3, x0
 b08:	90000000 	adrp	x0, 0 <__abi_tag-0x278>
 b0c:	91261002 	add	x2, x0, #0x984
 b10:	d2800001 	mov	x1, #0x0                   	// #0
 b14:	aa0403e0 	mov	x0, x4
 b18:	97fffee6 	bl	6b0 <pthread_create@plt>
 b1c:	f94017e0 	ldr	x0, [sp, #40]
 b20:	d2800001 	mov	x1, #0x0                   	// #0
 b24:	97fffeeb 	bl	6d0 <pthread_join@plt>
 b28:	f94013e0 	ldr	x0, [sp, #32]
 b2c:	d2800001 	mov	x1, #0x0                   	// #0
 b30:	97fffee8 	bl	6d0 <pthread_join@plt>
 b34:	52800000 	mov	w0, #0x0                   	// #0
 b38:	a8c37bfd 	ldp	x29, x30, [sp], #48
 b3c:	d65f03c0 	ret
